

Microchip MPLAB XC8 Assembler V2.30 build 20200825195618 
                                                                                               Mon Mar 22 18:20:59 2021

Microchip MPLAB XC8 C Compiler v2.30 (Free license) build 20200825195618 Og1 
     1                           	processor	16F883
     2                           	pagewidth 120
     3                           	opt	flic
     4                           	psect	strings,global,class=STRING,delta=2,noexec
     5                           	psect	cinit,global,class=CODE,merge=1,delta=2
     6                           	psect	bssBANK0,global,class=BANK0,space=1,delta=1,noexec
     7                           	psect	cstackBANK1,global,class=BANK1,space=1,delta=1,noexec
     8                           	psect	cstackCOMMON,global,class=COMMON,space=1,delta=1,noexec
     9                           	psect	cstackBANK0,global,class=BANK0,space=1,delta=1,noexec
    10                           	psect	maintext,global,class=CODE,split=1,delta=2
    11                           	psect	text1,local,class=CODE,merge=1,delta=2
    12                           	psect	text2,local,class=CODE,merge=1,delta=2,group=1
    13                           	psect	text3,local,class=CODE,merge=1,delta=2
    14                           	psect	text4,local,class=CODE,merge=1,delta=2,group=2
    15                           	psect	text5,local,class=CODE,merge=1,delta=2,group=2
    16                           	psect	text6,local,class=CODE,merge=1,delta=2
    17                           	psect	text7,local,class=CODE,merge=1,delta=2
    18                           	psect	text8,local,class=CODE,merge=1,delta=2,group=2
    19                           	psect	text9,local,class=CODE,merge=1,delta=2,group=2
    20                           	psect	text10,local,class=CODE,merge=1,delta=2,group=2
    21                           	psect	text11,local,class=CODE,merge=1,delta=2,group=2
    22                           	psect	text12,local,class=CODE,merge=1,delta=2,group=2
    23                           	psect	text13,local,class=CODE,merge=1,delta=2,group=2
    24                           	psect	text14,local,class=CODE,merge=1,delta=2,group=2
    25                           	psect	config,global,abs,ovrld,class=CONFIG,space=4,delta=2,noexec
    26                           	dabs	1,0x7E,2
    27  0000                     
    28                           ; Version 2.20
    29                           ; Generated 12/02/2020 GMT
    30                           ; 
    31                           ; Copyright © 2020, Microchip Technology Inc. and its subsidiaries ("Microchip")
    32                           ; All rights reserved.
    33                           ; 
    34                           ; This software is developed by Microchip Technology Inc. and its subsidiaries ("Microch
      +                          ip").
    35                           ; 
    36                           ; Redistribution and use in source and binary forms, with or without modification, are
    37                           ; permitted provided that the following conditions are met:
    38                           ; 
    39                           ;     1. Redistributions of source code must retain the above copyright notice, this lis
      +                          t of
    40                           ;        conditions and the following disclaimer.
    41                           ; 
    42                           ;     2. Redistributions in binary form must reproduce the above copyright notice, this 
      +                          list
    43                           ;        of conditions and the following disclaimer in the documentation and/or other
    44                           ;        materials provided with the distribution.
    45                           ; 
    46                           ;     3. Microchip's name may not be used to endorse or promote products derived from th
      +                          is
    47                           ;        software without specific prior written permission.
    48                           ; 
    49                           ; THIS SOFTWARE IS PROVIDED BY MICROCHIP "AS IS" AND ANY EXPRESS OR IMPLIED WARRANTIES,
    50                           ; INCLUDING, BUT NOT LIMITED TO, THE IMPLIED WARRANTIES OF MERCHANTABILITY AND FITNESS F
      +                          OR
    51                           ; PURPOSE ARE DISCLAIMED.  IN NO EVENT SHALL MICROCHIP BE LIABLE FOR ANY DIRECT, INDIREC
      +                          T,
    52                           ; INCIDENTAL, SPECIAL, EXEMPLARY, OR CONSEQUENTIAL DAMAGES (INCLUDING BUT NOT LIMITED TO
    53                           ; PROCUREMENT OF SUBSTITUTE GOODS OR SERVICES; LOSS OF USE, DATA OR PROFITS; OR BUSINESS
    54                           ; INTERRUPTION) HOWSOEVER CAUSED AND ON ANY THEORY OF LIABILITY, WHETHER IN CONTRACT, ST
      +                          RICT
    55                           ; LIABILITY, OR TORT (INCLUDING NEGLIGENCE OR OTHERWISE) ARISING IN ANY WAY OUT OF THE U
      +                          SE OF
    56                           ; THIS SOFTWARE, EVEN IF ADVISED OF THE POSSIBILITY OF SUCH DAMAGE.
    57                           ; 
    58                           ; 
    59                           ; Code-generator required, PIC16F883 Definitions
    60                           ; 
    61                           ; SFR Addresses
    62  0000                     	;# 
    63  0001                     	;# 
    64  0002                     	;# 
    65  0003                     	;# 
    66  0004                     	;# 
    67  0005                     	;# 
    68  0006                     	;# 
    69  0007                     	;# 
    70  0009                     	;# 
    71  000A                     	;# 
    72  000B                     	;# 
    73  000C                     	;# 
    74  000D                     	;# 
    75  000E                     	;# 
    76  000E                     	;# 
    77  000F                     	;# 
    78  0010                     	;# 
    79  0011                     	;# 
    80  0012                     	;# 
    81  0013                     	;# 
    82  0014                     	;# 
    83  0015                     	;# 
    84  0015                     	;# 
    85  0016                     	;# 
    86  0017                     	;# 
    87  0018                     	;# 
    88  0019                     	;# 
    89  001A                     	;# 
    90  001B                     	;# 
    91  001B                     	;# 
    92  001C                     	;# 
    93  001D                     	;# 
    94  001E                     	;# 
    95  001F                     	;# 
    96  0081                     	;# 
    97  0085                     	;# 
    98  0086                     	;# 
    99  0087                     	;# 
   100  0089                     	;# 
   101  008C                     	;# 
   102  008D                     	;# 
   103  008E                     	;# 
   104  008F                     	;# 
   105  0090                     	;# 
   106  0091                     	;# 
   107  0092                     	;# 
   108  0093                     	;# 
   109  0093                     	;# 
   110  0093                     	;# 
   111  0094                     	;# 
   112  0095                     	;# 
   113  0096                     	;# 
   114  0097                     	;# 
   115  0098                     	;# 
   116  0099                     	;# 
   117  009A                     	;# 
   118  009B                     	;# 
   119  009C                     	;# 
   120  009D                     	;# 
   121  009E                     	;# 
   122  009F                     	;# 
   123  0105                     	;# 
   124  0107                     	;# 
   125  0108                     	;# 
   126  0109                     	;# 
   127  010C                     	;# 
   128  010C                     	;# 
   129  010D                     	;# 
   130  010E                     	;# 
   131  010F                     	;# 
   132  0185                     	;# 
   133  0187                     	;# 
   134  0188                     	;# 
   135  0189                     	;# 
   136  018C                     	;# 
   137  018D                     	;# 
   138  0000                     	;# 
   139  0001                     	;# 
   140  0002                     	;# 
   141  0003                     	;# 
   142  0004                     	;# 
   143  0005                     	;# 
   144  0006                     	;# 
   145  0007                     	;# 
   146  0009                     	;# 
   147  000A                     	;# 
   148  000B                     	;# 
   149  000C                     	;# 
   150  000D                     	;# 
   151  000E                     	;# 
   152  000E                     	;# 
   153  000F                     	;# 
   154  0010                     	;# 
   155  0011                     	;# 
   156  0012                     	;# 
   157  0013                     	;# 
   158  0014                     	;# 
   159  0015                     	;# 
   160  0015                     	;# 
   161  0016                     	;# 
   162  0017                     	;# 
   163  0018                     	;# 
   164  0019                     	;# 
   165  001A                     	;# 
   166  001B                     	;# 
   167  001B                     	;# 
   168  001C                     	;# 
   169  001D                     	;# 
   170  001E                     	;# 
   171  001F                     	;# 
   172  0081                     	;# 
   173  0085                     	;# 
   174  0086                     	;# 
   175  0087                     	;# 
   176  0089                     	;# 
   177  008C                     	;# 
   178  008D                     	;# 
   179  008E                     	;# 
   180  008F                     	;# 
   181  0090                     	;# 
   182  0091                     	;# 
   183  0092                     	;# 
   184  0093                     	;# 
   185  0093                     	;# 
   186  0093                     	;# 
   187  0094                     	;# 
   188  0095                     	;# 
   189  0096                     	;# 
   190  0097                     	;# 
   191  0098                     	;# 
   192  0099                     	;# 
   193  009A                     	;# 
   194  009B                     	;# 
   195  009C                     	;# 
   196  009D                     	;# 
   197  009E                     	;# 
   198  009F                     	;# 
   199  0105                     	;# 
   200  0107                     	;# 
   201  0108                     	;# 
   202  0109                     	;# 
   203  010C                     	;# 
   204  010C                     	;# 
   205  010D                     	;# 
   206  010E                     	;# 
   207  010F                     	;# 
   208  0185                     	;# 
   209  0187                     	;# 
   210  0188                     	;# 
   211  0189                     	;# 
   212  018C                     	;# 
   213  018D                     	;# 
   214                           
   215                           	psect	strings
   216  0002                     __pstrings:
   217  0002                     stringtab:
   218  0002                     __stringtab:
   219  0002                     stringcode:	
   220                           ;	String table - string pointers are 1 byte each
   221                           
   222  0002                     stringdir:
   223  0002  3000               	movlw	high stringdir
   224  0003  008A               	movwf	10
   225  0004  0804               	movf	4,w
   226  0005  0A84               	incf	4,f
   227  0006  0782               	addwf	2,f
   228  0007                     __stringbase:
   229  0007  3400               	retlw	0
   230  0008                     __end_of__stringtab:
   231  0008                     _dpowers:
   232  0008  3401               	retlw	1
   233  0009  3400               	retlw	0
   234  000A  340A               	retlw	10
   235  000B  3400               	retlw	0
   236  000C  3464               	retlw	100
   237  000D  3400               	retlw	0
   238  000E  34E8               	retlw	232
   239  000F  3403               	retlw	3
   240  0010  3410               	retlw	16
   241  0011  3427               	retlw	39
   242  0012                     __end_of_dpowers:
   243  0012                     _hexpowers:
   244  0012  3401               	retlw	1
   245  0013  3400               	retlw	0
   246  0014  3410               	retlw	16
   247  0015  3400               	retlw	0
   248  0016  3400               	retlw	0
   249  0017  3401               	retlw	1
   250  0018  3400               	retlw	0
   251  0019  3410               	retlw	16
   252  001A                     __end_of_hexpowers:
   253  001A                     _RCREG	set	26
   254  0019                     _TXREG	set	25
   255  0018                     _RCSTAbits	set	24
   256  0018                     _RCSTA	set	24
   257  0006                     _PORTB	set	6
   258  0017                     _CCP1CONbits	set	23
   259  0015                     _CCPR1L	set	21
   260  0012                     _T2CONbits	set	18
   261  0005                     _PORTA	set	5
   262  0065                     _RCIF	set	101
   263  0064                     _TXIF	set	100
   264  0098                     _TXSTAbits	set	152
   265  0098                     _TXSTA	set	152
   266  0099                     _SPBRG	set	153
   267  0087                     _TRISC	set	135
   268  0086                     _TRISB	set	134
   269  0085                     _TRISA	set	133
   270  0092                     _PR2	set	146
   271  008F                     _OSCCON	set	143
   272  0188                     _ANSEL	set	392
   273  001A                     STR_3:
   274  001A  3450               	retlw	80	;'P'
   275  001B  3452               	retlw	82	;'R'
   276  001C  3432               	retlw	50	;'2'
   277  001D  343D               	retlw	61	;'='
   278  001E  3425               	retlw	37	;'%'
   279  001F  3464               	retlw	100	;'d'
   280  0020  3420               	retlw	32	;' '
   281  0021  3409               	retlw	9
   282  0022  3420               	retlw	32	;' '
   283  0023  3443               	retlw	67	;'C'
   284  0024  3443               	retlw	67	;'C'
   285  0025  3450               	retlw	80	;'P'
   286  0026  3452               	retlw	82	;'R'
   287  0027  3431               	retlw	49	;'1'
   288  0028  344C               	retlw	76	;'L'
   289  0029  343D               	retlw	61	;'='
   290  002A  3425               	retlw	37	;'%'
   291  002B  3478               	retlw	120	;'x'
   292  002C  3420               	retlw	32	;' '
   293  002D  3409               	retlw	9
   294  002E  3420               	retlw	32	;' '
   295  002F  3444               	retlw	68	;'D'
   296  0030  3443               	retlw	67	;'C'
   297  0031  3431               	retlw	49	;'1'
   298  0032  3442               	retlw	66	;'B'
   299  0033  343D               	retlw	61	;'='
   300  0034  3425               	retlw	37	;'%'
   301  0035  3478               	retlw	120	;'x'
   302  0036  340A               	retlw	10
   303  0037  3400               	retlw	0
   304  0038                     STR_4:
   305  0038  3430               	retlw	48	;'0'
   306  0039  3431               	retlw	49	;'1'
   307  003A  3432               	retlw	50	;'2'
   308  003B  3433               	retlw	51	;'3'
   309  003C  3434               	retlw	52	;'4'
   310  003D  3435               	retlw	53	;'5'
   311  003E  3436               	retlw	54	;'6'
   312  003F  3437               	retlw	55	;'7'
   313  0040  3438               	retlw	56	;'8'
   314  0041  3439               	retlw	57	;'9'
   315  0042  3461               	retlw	97	;'a'
   316  0043  3462               	retlw	98	;'b'
   317  0044  3463               	retlw	99	;'c'
   318  0045  3464               	retlw	100	;'d'
   319  0046  3465               	retlw	101	;'e'
   320  0047  3466               	retlw	102	;'f'
   321  0048  3400               	retlw	0
   322  0049                     STR_2:
   323  0049  3448               	retlw	72	;'H'
   324  004A  3465               	retlw	101	;'e'
   325  004B  346C               	retlw	108	;'l'
   326  004C  346C               	retlw	108	;'l'
   327  004D  346F               	retlw	111	;'o'
   328  004E  3420               	retlw	32	;' '
   329  004F  3457               	retlw	87	;'W'
   330  0050  346F               	retlw	111	;'o'
   331  0051  3472               	retlw	114	;'r'
   332  0052  346C               	retlw	108	;'l'
   333  0053  3464               	retlw	100	;'d'
   334  0054  3421               	retlw	33	;'!'
   335  0055  340A               	retlw	10
   336  0056  340A               	retlw	10
   337  0057  3400               	retlw	0
   338  0056                     
   339                           	psect	cinit
   340  07F9                     start_initialization:	
   341                           ; #config settings
   342                           
   343  07F9                     __initialization:
   344                           
   345                           ; Clear objects allocated to BANK0
   346  07F9  1283               	bcf	3,5	;RP0=0, select bank0
   347  07FA  1303               	bcf	3,6	;RP1=0, select bank0
   348  07FB  01D5               	clrf	__pbssBANK0& (0+127)
   349  07FC  01D6               	clrf	(__pbssBANK0+1)& (0+127)
   350  07FD                     end_of_initialization:	
   351                           ;End of C runtime variable initialization code
   352                           
   353  07FD                     __end_of__initialization:
   354  07FD  0183               	clrf	3
   355  07FE  118A  2AFA         	ljmp	_main	;jump to C main() function
   356                           
   357                           	psect	bssBANK0
   358  0055                     __pbssBANK0:
   359  0055                     _work:
   360  0055                     	ds	1
   361  0056                     _BUZ:
   362  0056                     	ds	1
   363                           
   364                           	psect	cstackBANK1
   365  00A0                     __pcstackBANK1:
   366  00A0                     	ds	3
   367  00A3                     main@onTime:
   368                           
   369                           ; 4 bytes @ 0x3
   370  00A3                     	ds	7
   371  00AA                     _main$911:
   372                           
   373                           ; 4 bytes @ 0xA
   374  00AA                     	ds	4
   375  00AE                     main@uctp:
   376                           
   377                           ; 1 bytes @ 0xE
   378  00AE                     	ds	1
   379  00AF                     main@PWMPeriod:
   380                           
   381                           ; 4 bytes @ 0xF
   382  00AF                     	ds	4
   383  00B3                     main@tp:
   384                           
   385                           ; 2 bytes @ 0x13
   386  00B3                     	ds	2
   387  00B5                     main@temp:
   388                           
   389                           ; 4 bytes @ 0x15
   390  00B5                     	ds	4
   391  00B9                     main@freq:
   392                           
   393                           ; 2 bytes @ 0x19
   394  00B9                     	ds	2
   395  00BB                     main@tmp:
   396                           
   397                           ; 4 bytes @ 0x1B
   398  00BB                     	ds	4
   399  00BF                     main@bits:
   400                           
   401                           ; 1 bytes @ 0x1F
   402  00BF                     	ds	1
   403  00C0                     main@CLKPeriod:
   404                           
   405                           ; 4 bytes @ 0x20
   406  00C0                     	ds	4
   407  00C4                     main@priscaler:
   408                           
   409                           ; 4 bytes @ 0x24
   410  00C4                     	ds	4
   411                           
   412                           	psect	cstackCOMMON
   413  0070                     __pcstackCOMMON:
   414  0070                     ?___fleq:
   415  0070                     ?___flge:	
   416                           ; 1 bit 
   417                           
   418  0070                     ?_set_port:	
   419                           ; 1 bit 
   420                           
   421  0070                     ??_set_port:	
   422                           ; 1 bytes @ 0x0
   423                           
   424  0070                     ?_init_pwm:	
   425                           ; 1 bytes @ 0x0
   426                           
   427  0070                     ??_init_pwm:	
   428                           ; 1 bytes @ 0x0
   429                           
   430  0070                     ?_initUART:	
   431                           ; 1 bytes @ 0x0
   432                           
   433  0070                     ??_initUART:	
   434                           ; 1 bytes @ 0x0
   435                           
   436  0070                     ?_main:	
   437                           ; 1 bytes @ 0x0
   438                           
   439  0070                     ?_putch:	
   440                           ; 1 bytes @ 0x0
   441                           
   442  0070                     ??_putch:	
   443                           ; 1 bytes @ 0x0
   444                           
   445  0070                     ?__Umul8_16:	
   446                           ; 1 bytes @ 0x0
   447                           
   448  0070                     ?___lwdiv:	
   449                           ; 2 bytes @ 0x0
   450                           
   451  0070                     ?___fltol:	
   452                           ; 2 bytes @ 0x0
   453                           
   454  0070                     ?___xxtofl:	
   455                           ; 4 bytes @ 0x0
   456                           
   457  0070                     putch@byte:	
   458                           ; 4 bytes @ 0x0
   459                           
   460  0070                     __Umul8_16@multiplicand:	
   461                           ; 1 bytes @ 0x0
   462                           
   463  0070                     ___lwdiv@divisor:	
   464                           ; 1 bytes @ 0x0
   465                           
   466  0070                     ___fleq@ff1:	
   467                           ; 2 bytes @ 0x0
   468                           
   469  0070                     ___flge@ff1:	
   470                           ; 4 bytes @ 0x0
   471                           
   472  0070                     ___fltol@f1:	
   473                           ; 4 bytes @ 0x0
   474                           
   475  0070                     ___xxtofl@val:	
   476                           ; 4 bytes @ 0x0
   477                           
   478                           
   479                           ; 4 bytes @ 0x0
   480  0070                     	ds	2
   481  0072                     ??__Umul8_16:
   482  0072                     ___lwdiv@dividend:	
   483                           ; 1 bytes @ 0x2
   484                           
   485                           
   486                           ; 2 bytes @ 0x2
   487  0072                     	ds	2
   488  0074                     ??___fltol:
   489  0074                     ??___lwdiv:	
   490                           ; 1 bytes @ 0x4
   491                           
   492  0074                     ??___xxtofl:	
   493                           ; 1 bytes @ 0x4
   494                           
   495  0074                     __Umul8_16@product:	
   496                           ; 1 bytes @ 0x4
   497                           
   498  0074                     ___fleq@ff2:	
   499                           ; 2 bytes @ 0x4
   500                           
   501  0074                     ___flge@ff2:	
   502                           ; 4 bytes @ 0x4
   503                           
   504                           
   505                           ; 4 bytes @ 0x4
   506  0074                     	ds	1
   507  0075                     ___lwdiv@quotient:
   508                           
   509                           ; 2 bytes @ 0x5
   510  0075                     	ds	1
   511  0076                     __Umul8_16@word_mpld:
   512                           
   513                           ; 2 bytes @ 0x6
   514  0076                     	ds	1
   515  0077                     ___lwdiv@counter:
   516                           
   517                           ; 1 bytes @ 0x7
   518  0077                     	ds	1
   519  0078                     ??___fleq:
   520  0078                     ??___flge:	
   521                           ; 1 bytes @ 0x8
   522                           
   523  0078                     ?___lwmod:	
   524                           ; 1 bytes @ 0x8
   525                           
   526  0078                     __Umul8_16@multiplier:	
   527                           ; 2 bytes @ 0x8
   528                           
   529  0078                     ___xxtofl@sign:	
   530                           ; 1 bytes @ 0x8
   531                           
   532  0078                     ___lwmod@divisor:	
   533                           ; 1 bytes @ 0x8
   534                           
   535                           
   536                           ; 2 bytes @ 0x8
   537  0078                     	ds	1
   538  0079                     ??___flmul:
   539  0079                     ___fltol@sign1:	
   540                           ; 1 bytes @ 0x9
   541                           
   542  0079                     ___xxtofl@exp:	
   543                           ; 1 bytes @ 0x9
   544                           
   545                           
   546                           ; 1 bytes @ 0x9
   547  0079                     	ds	1
   548  007A                     ___fltol@exp1:
   549  007A                     ___lwmod@dividend:	
   550                           ; 1 bytes @ 0xA
   551                           
   552  007A                     ___xxtofl@arg:	
   553                           ; 2 bytes @ 0xA
   554                           
   555                           
   556                           ; 4 bytes @ 0xA
   557  007A                     	ds	2
   558  007C                     ??___lwmod:
   559                           
   560                           ; 1 bytes @ 0xC
   561  007C                     	ds	1
   562  007D                     ___lwmod@counter:
   563                           
   564                           ; 1 bytes @ 0xD
   565  007D                     	ds	1
   566                           
   567                           	psect	cstackBANK0
   568  0020                     __pcstackBANK0:
   569  0020                     ?_printf:
   570  0020                     ?___flmul:	
   571                           ; 2 bytes @ 0x0
   572                           
   573  0020                     ___flmul@b:	
   574                           ; 4 bytes @ 0x0
   575                           
   576                           
   577                           ; 4 bytes @ 0x0
   578  0020                     	ds	4
   579  0024                     ___flmul@a:
   580                           
   581                           ; 4 bytes @ 0x4
   582  0024                     	ds	2
   583  0026                     ??_printf:
   584                           
   585                           ; 1 bytes @ 0x6
   586  0026                     	ds	2
   587  0028                     ___flmul@sign:
   588                           
   589                           ; 1 bytes @ 0x8
   590  0028                     	ds	1
   591  0029                     printf@idx:
   592  0029                     ___flmul@grs:	
   593                           ; 1 bytes @ 0x9
   594                           
   595                           
   596                           ; 4 bytes @ 0x9
   597  0029                     	ds	1
   598  002A                     printf@ap:
   599                           
   600                           ; 1 bytes @ 0xA
   601  002A                     	ds	1
   602  002B                     printf@f:
   603                           
   604                           ; 1 bytes @ 0xB
   605  002B                     	ds	1
   606  002C                     printf@prec:
   607                           
   608                           ; 1 bytes @ 0xC
   609  002C                     	ds	1
   610  002D                     printf@flag:
   611  002D                     ___flmul@aexp:	
   612                           ; 1 bytes @ 0xD
   613                           
   614                           
   615                           ; 1 bytes @ 0xD
   616  002D                     	ds	1
   617  002E                     ___flmul@bexp:
   618  002E                     printf@val:	
   619                           ; 1 bytes @ 0xE
   620                           
   621                           
   622                           ; 2 bytes @ 0xE
   623  002E                     	ds	1
   624  002F                     ___flmul@prod:
   625                           
   626                           ; 4 bytes @ 0xF
   627  002F                     	ds	1
   628  0030                     printf@c:
   629                           
   630                           ; 1 bytes @ 0x10
   631  0030                     	ds	3
   632  0033                     ___flmul@temp:
   633                           
   634                           ; 2 bytes @ 0x13
   635  0033                     	ds	2
   636  0035                     ?___fldiv:
   637  0035                     ___fldiv@a:	
   638                           ; 4 bytes @ 0x15
   639                           
   640                           
   641                           ; 4 bytes @ 0x15
   642  0035                     	ds	4
   643  0039                     ___fldiv@b:
   644                           
   645                           ; 4 bytes @ 0x19
   646  0039                     	ds	4
   647  003D                     ??___fldiv:
   648                           
   649                           ; 1 bytes @ 0x1D
   650  003D                     	ds	5
   651  0042                     ___fldiv@rem:
   652                           
   653                           ; 4 bytes @ 0x22
   654  0042                     	ds	4
   655  0046                     ___fldiv@sign:
   656                           
   657                           ; 1 bytes @ 0x26
   658  0046                     	ds	1
   659  0047                     ___fldiv@new_exp:
   660                           
   661                           ; 2 bytes @ 0x27
   662  0047                     	ds	2
   663  0049                     ___fldiv@grs:
   664                           
   665                           ; 4 bytes @ 0x29
   666  0049                     	ds	4
   667  004D                     ___fldiv@bexp:
   668                           
   669                           ; 1 bytes @ 0x2D
   670  004D                     	ds	1
   671  004E                     ___fldiv@aexp:
   672                           
   673                           ; 1 bytes @ 0x2E
   674  004E                     	ds	1
   675  004F                     ??_main:
   676                           
   677                           ; 1 bytes @ 0x2F
   678  004F                     	ds	6
   679                           
   680                           	psect	maintext
   681  02FA                     __pmaintext:	
   682 ;;
   683 ;;Main: autosize = 0, tempsize = 6, incstack = 0, save=0
   684 ;;
   685 ;; *************** function _main *****************
   686 ;; Defined at:
   687 ;;		line 64 in file "main.c"
   688 ;; Parameters:    Size  Location     Type
   689 ;;		None
   690 ;; Auto vars:     Size  Location     Type
   691 ;;  tmp             4   27[BANK1 ] PTR void [1]
   692 ;;  temp            4   21[BANK1 ] PTR void [1]
   693 ;;  onTime          4    3[BANK1 ] PTR void [1]
   694 ;;  tp              2   19[BANK1 ] unsigned char [2]
   695 ;;  uctp            1   14[BANK1 ] unsigned char 
   696 ;;  freq            2   25[BANK1 ] int 
   697 ;;  priscaler       4   36[BANK1 ] int 
   698 ;;  CLKPeriod       4   32[BANK1 ] int 
   699 ;;  PWMPeriod       4   15[BANK1 ] int 
   700 ;;  bits            1   31[BANK1 ] unsigned char 
   701 ;;  LED3            1    0        unsigned char 
   702 ;;  LED1            1    0        unsigned char 
   703 ;;  LEDS            1    0        unsigned char 
   704 ;;  LED4            1    0        unsigned char 
   705 ;;  LED2            1    0        unsigned char 
   706 ;;  LED             1    0        unsigned char 
   707 ;; Return value:  Size  Location     Type
   708 ;;                  1    wreg      void 
   709 ;; Registers used:
   710 ;;		wreg, fsr0l, fsr0h, status,2, status,0, btemp+1, pclath, cstack
   711 ;; Tracked objects:
   712 ;;		On entry : B00/0
   713 ;;		On exit  : 0/0
   714 ;;		Unchanged: 0/0
   715 ;; Data sizes:     COMMON   BANK0   BANK1   BANK2
   716 ;;      Params:         0       0       0       0
   717 ;;      Locals:         0       0      40       0
   718 ;;      Temps:          0       6       0       0
   719 ;;      Totals:         0       6      40       0
   720 ;;Total ram usage:       46 bytes
   721 ;; Hardware stack levels required when called:    2
   722 ;; This function calls:
   723 ;;		___fldiv
   724 ;;		___fleq
   725 ;;		___flge
   726 ;;		___flmul
   727 ;;		___fltol
   728 ;;		___xxtofl
   729 ;;		_initUART
   730 ;;		_init_pwm
   731 ;;		_printf
   732 ;;		_set_port
   733 ;; This function is called by:
   734 ;;		Startup code after reset
   735 ;; This function uses a non-reentrant model
   736 ;;
   737                           
   738                           
   739                           ;psect for function _main
   740  02FA                     _main:
   741  02FA                     l2243:	
   742                           ;incstack = 0
   743                           ; Regs used in _main: [wreg-fsr0h+status,2+status,0+btemp+1+pclath+cstack]
   744                           
   745                           
   746                           ;main.c: 65:     set_port();
   747  02FA  158A  2143  118A   	fcall	_set_port
   748                           
   749                           ;main.c: 66:     init_pwm();
   750  02FD  158A  2132  118A   	fcall	_init_pwm
   751  0300                     l2245:
   752  0300                     l2247:
   753  0300                     l2249:
   754  0300                     l2251:
   755  0300                     l2253:
   756  0300                     l2255:
   757  0300                     l2257:
   758                           
   759                           ;main.c: 74:     PORTA = LEDS & (~LED1);
   760  0300  30FB               	movlw	251
   761  0301  1283               	bcf	3,5	;RP0=0, select bank0
   762  0302  1303               	bcf	3,6	;RP1=0, select bank0
   763  0303  0085               	movwf	5	;volatile
   764  0304                     l2259:
   765                           
   766                           ;main.c: 76:     initUART();
   767  0304  158A  2121  118A   	fcall	_initUART
   768  0307                     l2261:
   769                           
   770                           ;main.c: 77:     _delay((unsigned long)((500)*(500000/4000.0)));
   771  0307  3052               	movlw	82
   772  0308  1283               	bcf	3,5	;RP0=0, select bank0
   773  0309  1303               	bcf	3,6	;RP1=0, select bank0
   774  030A  00D0               	movwf	??_main+1
   775  030B  3029               	movlw	41
   776  030C  00CF               	movwf	??_main
   777  030D                     u2807:
   778  030D  0BCF               	decfsz	??_main,f
   779  030E  2B0D               	goto	u2807
   780  030F  0BD0               	decfsz	??_main+1,f
   781  0310  2B0D               	goto	u2807
   782  0311  0000               	nop
   783  0312                     l2263:
   784                           
   785                           ;main.c: 78:     printf("\n");
   786  0312  304F               	movlw	(low (((STR_2+13)-__stringbase)| (0+32768)))& (0+255)
   787  0313  158A  2366  118A   	fcall	_printf
   788  0316                     l2265:
   789                           
   790                           ;main.c: 79:     printf("Hello World!\n\n");
   791  0316  3042               	movlw	(low ((STR_2-__stringbase)| (0+32768)))& (0+255)
   792  0317  158A  2366  118A   	fcall	_printf
   793  031A                     l2267:
   794                           
   795                           ;main.c: 80:     PORTA = PORTA & (~LED3);
   796  031A  1283               	bcf	3,5	;RP0=0, select bank0
   797  031B  1303               	bcf	3,6	;RP1=0, select bank0
   798  031C  0805               	movf	5,w	;volatile
   799  031D  39EF               	andlw	239
   800  031E  0085               	movwf	5	;volatile
   801  031F                     l2269:
   802                           
   803                           ;main.c: 92:             init_pwm();
   804  031F  158A  2132  118A   	fcall	_init_pwm
   805  0322                     l2271:
   806                           
   807                           ;main.c: 93:             double PWMPeriod;;main.c: 94:             unsigned char bits;;m
      +                          ain.c: 95:             double priscaler;;main.c: 96:             double CLKPeriod;;main.
      +                          c: 97:         for(int freq=200; freq>=20; freq-=20){
   808  0322  30C8               	movlw	200
   809  0323  1683               	bsf	3,5	;RP0=1, select bank1
   810  0324  1303               	bcf	3,6	;RP1=0, select bank1
   811  0325  00B9               	movwf	main@freq^(0+128)
   812  0326  3000               	movlw	0
   813  0327  00BA               	movwf	(main@freq^(0+128)+1)
   814  0328                     l2273:
   815  0328  083A               	movf	(main@freq+1)^(0+128),w
   816  0329  3A80               	xorlw	128
   817  032A  00FF               	movwf	btemp+1
   818  032B  3080               	movlw	128
   819  032C  027F               	subwf	btemp+1,w
   820  032D  1D03               	skipz
   821  032E  2B31               	goto	u2685
   822  032F  3014               	movlw	20
   823  0330  0239               	subwf	main@freq^(0+128),w
   824  0331                     u2685:
   825  0331  1803               	skipnc
   826  0332  2B34               	goto	u2681
   827  0333  2B35               	goto	u2680
   828  0334                     u2681:
   829  0334  2B36               	goto	l2277
   830  0335                     u2680:
   831  0335  2B1F               	goto	l2269
   832  0336                     l2277:
   833                           
   834                           ;main.c: 99:             PWMPeriod = 1000000.0f/freq;
   835  0336  1683               	bsf	3,5	;RP0=1, select bank1
   836  0337  1303               	bcf	3,6	;RP1=0, select bank1
   837  0338  0839               	movf	main@freq^(0+128),w
   838  0339  00F0               	movwf	___xxtofl@val
   839  033A  083A               	movf	(main@freq+1)^(0+128),w
   840  033B  00F1               	movwf	___xxtofl@val+1
   841  033C  3000               	movlw	0
   842  033D  1BF1               	btfsc	___xxtofl@val+1,7
   843  033E  30FF               	movlw	255
   844  033F  00F2               	movwf	___xxtofl@val+2
   845  0340  00F3               	movwf	___xxtofl@val+3
   846  0341  3001               	movlw	1
   847  0342  118A  2063  118A   	fcall	___xxtofl
   848  0345  0873               	movf	?___xxtofl+3,w
   849  0346  1283               	bcf	3,5	;RP0=0, select bank0
   850  0347  1303               	bcf	3,6	;RP1=0, select bank0
   851  0348  00B8               	movwf	___fldiv@a+3
   852  0349  0872               	movf	?___xxtofl+2,w
   853  034A  00B7               	movwf	___fldiv@a+2
   854  034B  0871               	movf	?___xxtofl+1,w
   855  034C  00B6               	movwf	___fldiv@a+1
   856  034D  0870               	movf	?___xxtofl,w
   857  034E  00B5               	movwf	___fldiv@a
   858  034F  3049               	movlw	73
   859  0350  00BC               	movwf	___fldiv@b+3
   860  0351  3074               	movlw	116
   861  0352  00BB               	movwf	___fldiv@b+2
   862  0353  3024               	movlw	36
   863  0354  00BA               	movwf	___fldiv@b+1
   864  0355  3000               	movlw	0
   865  0356  00B9               	movwf	___fldiv@b
   866  0357  118A  211D  118A   	fcall	___fldiv
   867  035A  1283               	bcf	3,5	;RP0=0, select bank0
   868  035B  1303               	bcf	3,6	;RP1=0, select bank0
   869  035C  0838               	movf	?___fldiv+3,w
   870  035D  1683               	bsf	3,5	;RP0=1, select bank1
   871  035E  1303               	bcf	3,6	;RP1=0, select bank1
   872  035F  00B2               	movwf	(main@PWMPeriod+3)^(0+128)
   873  0360  1283               	bcf	3,5	;RP0=0, select bank0
   874  0361  1303               	bcf	3,6	;RP1=0, select bank0
   875  0362  0837               	movf	?___fldiv+2,w
   876  0363  1683               	bsf	3,5	;RP0=1, select bank1
   877  0364  1303               	bcf	3,6	;RP1=0, select bank1
   878  0365  00B1               	movwf	(main@PWMPeriod+2)^(0+128)
   879  0366  1283               	bcf	3,5	;RP0=0, select bank0
   880  0367  1303               	bcf	3,6	;RP1=0, select bank0
   881  0368  0836               	movf	?___fldiv+1,w
   882  0369  1683               	bsf	3,5	;RP0=1, select bank1
   883  036A  1303               	bcf	3,6	;RP1=0, select bank1
   884  036B  00B0               	movwf	(main@PWMPeriod+1)^(0+128)
   885  036C  1283               	bcf	3,5	;RP0=0, select bank0
   886  036D  1303               	bcf	3,6	;RP1=0, select bank0
   887  036E  0835               	movf	?___fldiv,w
   888  036F  1683               	bsf	3,5	;RP0=1, select bank1
   889  0370  1303               	bcf	3,6	;RP1=0, select bank1
   890  0371  00AF               	movwf	main@PWMPeriod^(0+128)
   891  0372                     l2279:
   892                           
   893                           ;main.c: 100:             bits = OSCCON & 0b1110000;
   894  0372  080F               	movf	15,w	;volatile
   895  0373  3970               	andlw	112
   896  0374  1283               	bcf	3,5	;RP0=0, select bank0
   897  0375  1303               	bcf	3,6	;RP1=0, select bank0
   898  0376  00CF               	movwf	??_main
   899  0377  084F               	movf	??_main,w
   900  0378  1683               	bsf	3,5	;RP0=1, select bank1
   901  0379  1303               	bcf	3,6	;RP1=0, select bank1
   902  037A  00BF               	movwf	main@bits^(0+128)
   903                           
   904                           ;main.c: 102:             switch(bits){
   905  037B  2BD4               	goto	l2299
   906  037C                     l2281:
   907                           
   908                           ;main.c: 104:                     CLKPeriod=1000000/8000000;
   909  037C  3000               	movlw	0
   910  037D  1683               	bsf	3,5	;RP0=1, select bank1
   911  037E  1303               	bcf	3,6	;RP1=0, select bank1
   912  037F  00C3               	movwf	(main@CLKPeriod+3)^(0+128)
   913  0380  3000               	movlw	0
   914  0381  00C2               	movwf	(main@CLKPeriod+2)^(0+128)
   915  0382  3000               	movlw	0
   916  0383  00C1               	movwf	(main@CLKPeriod+1)^(0+128)
   917  0384  3000               	movlw	0
   918  0385  00C0               	movwf	main@CLKPeriod^(0+128)
   919                           
   920                           ;main.c: 105:                     break;
   921  0386  2BF8               	goto	l2301
   922  0387                     l2283:
   923                           
   924                           ;main.c: 107:                     CLKPeriod=1000000/4000000;
   925  0387  3000               	movlw	0
   926  0388  1683               	bsf	3,5	;RP0=1, select bank1
   927  0389  1303               	bcf	3,6	;RP1=0, select bank1
   928  038A  00C3               	movwf	(main@CLKPeriod+3)^(0+128)
   929  038B  3000               	movlw	0
   930  038C  00C2               	movwf	(main@CLKPeriod+2)^(0+128)
   931  038D  3000               	movlw	0
   932  038E  00C1               	movwf	(main@CLKPeriod+1)^(0+128)
   933  038F  3000               	movlw	0
   934  0390  00C0               	movwf	main@CLKPeriod^(0+128)
   935                           
   936                           ;main.c: 108:                     break;
   937  0391  2BF8               	goto	l2301
   938  0392                     l2285:
   939                           
   940                           ;main.c: 110:                     CLKPeriod=1000000/2000000;
   941  0392  3000               	movlw	0
   942  0393  1683               	bsf	3,5	;RP0=1, select bank1
   943  0394  1303               	bcf	3,6	;RP1=0, select bank1
   944  0395  00C3               	movwf	(main@CLKPeriod+3)^(0+128)
   945  0396  3000               	movlw	0
   946  0397  00C2               	movwf	(main@CLKPeriod+2)^(0+128)
   947  0398  3000               	movlw	0
   948  0399  00C1               	movwf	(main@CLKPeriod+1)^(0+128)
   949  039A  3000               	movlw	0
   950  039B  00C0               	movwf	main@CLKPeriod^(0+128)
   951                           
   952                           ;main.c: 111:                     break;
   953  039C  2BF8               	goto	l2301
   954  039D                     l2287:
   955                           
   956                           ;main.c: 113:                     CLKPeriod=1000000/1000000;
   957  039D  303F               	movlw	63
   958  039E  1683               	bsf	3,5	;RP0=1, select bank1
   959  039F  1303               	bcf	3,6	;RP1=0, select bank1
   960  03A0  00C3               	movwf	(main@CLKPeriod+3)^(0+128)
   961  03A1  3080               	movlw	128
   962  03A2  00C2               	movwf	(main@CLKPeriod+2)^(0+128)
   963  03A3  3000               	movlw	0
   964  03A4  00C1               	movwf	(main@CLKPeriod+1)^(0+128)
   965  03A5  3000               	movlw	0
   966  03A6  00C0               	movwf	main@CLKPeriod^(0+128)
   967                           
   968                           ;main.c: 114:                     break;
   969  03A7  2BF8               	goto	l2301
   970  03A8                     l2289:
   971                           
   972                           ;main.c: 116:                     CLKPeriod=1000000/500000;
   973  03A8  3040               	movlw	64
   974  03A9  1683               	bsf	3,5	;RP0=1, select bank1
   975  03AA  1303               	bcf	3,6	;RP1=0, select bank1
   976  03AB  00C3               	movwf	(main@CLKPeriod+3)^(0+128)
   977  03AC  3000               	movlw	0
   978  03AD  00C2               	movwf	(main@CLKPeriod+2)^(0+128)
   979  03AE  3000               	movlw	0
   980  03AF  00C1               	movwf	(main@CLKPeriod+1)^(0+128)
   981  03B0  3000               	movlw	0
   982  03B1  00C0               	movwf	main@CLKPeriod^(0+128)
   983                           
   984                           ;main.c: 117:                     break;
   985  03B2  2BF8               	goto	l2301
   986  03B3                     l2291:
   987                           
   988                           ;main.c: 119:                     CLKPeriod=1000000/250000;
   989  03B3  3040               	movlw	64
   990  03B4  1683               	bsf	3,5	;RP0=1, select bank1
   991  03B5  1303               	bcf	3,6	;RP1=0, select bank1
   992  03B6  00C3               	movwf	(main@CLKPeriod+3)^(0+128)
   993  03B7  3080               	movlw	128
   994  03B8  00C2               	movwf	(main@CLKPeriod+2)^(0+128)
   995  03B9  3000               	movlw	0
   996  03BA  00C1               	movwf	(main@CLKPeriod+1)^(0+128)
   997  03BB  3000               	movlw	0
   998  03BC  00C0               	movwf	main@CLKPeriod^(0+128)
   999                           
  1000                           ;main.c: 120:                     break;
  1001  03BD  2BF8               	goto	l2301
  1002  03BE                     l2293:
  1003                           
  1004                           ;main.c: 122:                     CLKPeriod=1000000/125000;
  1005  03BE  3041               	movlw	65
  1006  03BF  1683               	bsf	3,5	;RP0=1, select bank1
  1007  03C0  1303               	bcf	3,6	;RP1=0, select bank1
  1008  03C1  00C3               	movwf	(main@CLKPeriod+3)^(0+128)
  1009  03C2  3000               	movlw	0
  1010  03C3  00C2               	movwf	(main@CLKPeriod+2)^(0+128)
  1011  03C4  3000               	movlw	0
  1012  03C5  00C1               	movwf	(main@CLKPeriod+1)^(0+128)
  1013  03C6  3000               	movlw	0
  1014  03C7  00C0               	movwf	main@CLKPeriod^(0+128)
  1015                           
  1016                           ;main.c: 123:                     break;
  1017  03C8  2BF8               	goto	l2301
  1018  03C9                     l2295:
  1019                           
  1020                           ;main.c: 125:                     CLKPeriod=1000000/31000;
  1021  03C9  3042               	movlw	66
  1022  03CA  1683               	bsf	3,5	;RP0=1, select bank1
  1023  03CB  1303               	bcf	3,6	;RP1=0, select bank1
  1024  03CC  00C3               	movwf	(main@CLKPeriod+3)^(0+128)
  1025  03CD  3000               	movlw	0
  1026  03CE  00C2               	movwf	(main@CLKPeriod+2)^(0+128)
  1027  03CF  3000               	movlw	0
  1028  03D0  00C1               	movwf	(main@CLKPeriod+1)^(0+128)
  1029  03D1  3000               	movlw	0
  1030  03D2  00C0               	movwf	main@CLKPeriod^(0+128)
  1031                           
  1032                           ;main.c: 126:                     break;
  1033  03D3  2BF8               	goto	l2301
  1034  03D4                     l2299:
  1035  03D4  083F               	movf	main@bits^(0+128),w
  1036  03D5  1283               	bcf	3,5	;RP0=0, select bank0
  1037  03D6  1303               	bcf	3,6	;RP1=0, select bank0
  1038  03D7  00CF               	movwf	??_main
  1039  03D8  01D0               	clrf	??_main+1
  1040                           
  1041                           ; Switch on 2 bytes has been partitioned into a top level switch of size 1, and 1 sub-sw
      +                          itches
  1042                           ; Switch size 1, requested type "simple"
  1043                           ; Number of cases is 1, Range of values is 0 to 0
  1044                           ; switch strategies available:
  1045                           ; Name         Instructions Cycles
  1046                           ; simple_byte            4     3 (average)
  1047                           ; direct_byte            9     7 (fixed)
  1048                           ; jumptable            260     6 (fixed)
  1049                           ;	Chosen strategy is simple_byte
  1050  03D9  0850               	movf	??_main+1,w
  1051  03DA  3A00               	xorlw	0	; case 0
  1052  03DB  1903               	skipnz
  1053  03DC  2BDE               	goto	l2547
  1054  03DD  2BF8               	goto	l2301
  1055  03DE                     l2547:
  1056                           
  1057                           ; Switch size 1, requested type "simple"
  1058                           ; Number of cases is 8, Range of values is 0 to 112
  1059                           ; switch strategies available:
  1060                           ; Name         Instructions Cycles
  1061                           ; simple_byte           25    13 (average)
  1062                           ; direct_byte          233     7 (fixed)
  1063                           ; jumptable            260     6 (fixed)
  1064                           ;	Chosen strategy is simple_byte
  1065  03DE  084F               	movf	??_main,w
  1066  03DF  3A00               	xorlw	0	; case 0
  1067  03E0  1903               	skipnz
  1068  03E1  2BC9               	goto	l2295
  1069  03E2  3A10               	xorlw	16	; case 16
  1070  03E3  1903               	skipnz
  1071  03E4  2BBE               	goto	l2293
  1072  03E5  3A30               	xorlw	48	; case 32
  1073  03E6  1903               	skipnz
  1074  03E7  2BB3               	goto	l2291
  1075  03E8  3A10               	xorlw	16	; case 48
  1076  03E9  1903               	skipnz
  1077  03EA  2BA8               	goto	l2289
  1078  03EB  3A70               	xorlw	112	; case 64
  1079  03EC  1903               	skipnz
  1080  03ED  2B9D               	goto	l2287
  1081  03EE  3A10               	xorlw	16	; case 80
  1082  03EF  1903               	skipnz
  1083  03F0  2B92               	goto	l2285
  1084  03F1  3A30               	xorlw	48	; case 96
  1085  03F2  1903               	skipnz
  1086  03F3  2B87               	goto	l2283
  1087  03F4  3A10               	xorlw	16	; case 112
  1088  03F5  1903               	skipnz
  1089  03F6  2B7C               	goto	l2281
  1090  03F7  2BF8               	goto	l2301
  1091  03F8                     l2301:
  1092                           
  1093                           ;main.c: 131:             if(T2CONbits.T2CKPS==0b00){
  1094  03F8  1283               	bcf	3,5	;RP0=0, select bank0
  1095  03F9  0812               	movf	18,w	;volatile
  1096  03FA  3903               	andlw	3
  1097  03FB  3A00               	xorlw	0
  1098  03FC  1D03               	skipz
  1099  03FD  2BFF               	goto	u2691
  1100  03FE  2C00               	goto	u2690
  1101  03FF                     u2691:
  1102  03FF  2C0B               	goto	l2305
  1103  0400                     u2690:
  1104  0400                     l2303:
  1105                           
  1106                           ;main.c: 132:                priscaler = 1.0f;
  1107  0400  303F               	movlw	63
  1108  0401  1683               	bsf	3,5	;RP0=1, select bank1
  1109  0402  1303               	bcf	3,6	;RP1=0, select bank1
  1110  0403  00C7               	movwf	(main@priscaler+3)^(0+128)
  1111  0404  3080               	movlw	128
  1112  0405  00C6               	movwf	(main@priscaler+2)^(0+128)
  1113  0406  3000               	movlw	0
  1114  0407  00C5               	movwf	(main@priscaler+1)^(0+128)
  1115  0408  3000               	movlw	0
  1116  0409  00C4               	movwf	main@priscaler^(0+128)
  1117                           
  1118                           ;main.c: 133:             }else if(T2CONbits.T2CKPS==0b01){
  1119  040A  2C2F               	goto	l2313
  1120  040B                     l2305:
  1121  040B  0812               	movf	18,w	;volatile
  1122  040C  3903               	andlw	3
  1123  040D  3A01               	xorlw	1
  1124  040E  1D03               	skipz
  1125  040F  2C11               	goto	u2701
  1126  0410  2C12               	goto	u2700
  1127  0411                     u2701:
  1128  0411  2C1D               	goto	l2309
  1129  0412                     u2700:
  1130  0412                     l2307:
  1131                           
  1132                           ;main.c: 134:                 priscaler = 4.0f;
  1133  0412  3040               	movlw	64
  1134  0413  1683               	bsf	3,5	;RP0=1, select bank1
  1135  0414  1303               	bcf	3,6	;RP1=0, select bank1
  1136  0415  00C7               	movwf	(main@priscaler+3)^(0+128)
  1137  0416  3080               	movlw	128
  1138  0417  00C6               	movwf	(main@priscaler+2)^(0+128)
  1139  0418  3000               	movlw	0
  1140  0419  00C5               	movwf	(main@priscaler+1)^(0+128)
  1141  041A  3000               	movlw	0
  1142  041B  00C4               	movwf	main@priscaler^(0+128)
  1143                           
  1144                           ;main.c: 135:             }else if(T2CONbits.T2CKPS&0b10){
  1145  041C  2C2F               	goto	l2313
  1146  041D                     l2309:
  1147  041D  0812               	movf	18,w	;volatile
  1148  041E  3903               	andlw	3
  1149  041F  3902               	andlw	2
  1150  0420  1903               	btfsc	3,2
  1151  0421  2C23               	goto	u2711
  1152  0422  2C24               	goto	u2710
  1153  0423                     u2711:
  1154  0423  2C2F               	goto	l76
  1155  0424                     u2710:
  1156  0424                     l2311:
  1157                           
  1158                           ;main.c: 136:                 priscaler =16.0f;
  1159  0424  3041               	movlw	65
  1160  0425  1683               	bsf	3,5	;RP0=1, select bank1
  1161  0426  1303               	bcf	3,6	;RP1=0, select bank1
  1162  0427  00C7               	movwf	(main@priscaler+3)^(0+128)
  1163  0428  3080               	movlw	128
  1164  0429  00C6               	movwf	(main@priscaler+2)^(0+128)
  1165  042A  3000               	movlw	0
  1166  042B  00C5               	movwf	(main@priscaler+1)^(0+128)
  1167  042C  3000               	movlw	0
  1168  042D  00C4               	movwf	main@priscaler^(0+128)
  1169                           
  1170                           ;main.c: 137:             }else{
  1171  042E  2C2F               	goto	l2313
  1172  042F                     l76:
  1173  042F                     l2313:
  1174                           
  1175                           ;main.c: 140:             unsigned char uctp;;main.c: 141:             double temp = PWM
      +                          Period / (4*CLKPeriod* priscaler);
  1176  042F  3040               	movlw	64
  1177  0430  1283               	bcf	3,5	;RP0=0, select bank0
  1178  0431  00A3               	movwf	___flmul@b+3
  1179  0432  3080               	movlw	128
  1180  0433  00A2               	movwf	___flmul@b+2
  1181  0434  3000               	movlw	0
  1182  0435  00A1               	movwf	___flmul@b+1
  1183  0436  3000               	movlw	0
  1184  0437  00A0               	movwf	___flmul@b
  1185  0438  1683               	bsf	3,5	;RP0=1, select bank1
  1186  0439  1303               	bcf	3,6	;RP1=0, select bank1
  1187  043A  0843               	movf	(main@CLKPeriod+3)^(0+128),w
  1188  043B  1283               	bcf	3,5	;RP0=0, select bank0
  1189  043C  1303               	bcf	3,6	;RP1=0, select bank0
  1190  043D  00A7               	movwf	___flmul@a+3
  1191  043E  1683               	bsf	3,5	;RP0=1, select bank1
  1192  043F  1303               	bcf	3,6	;RP1=0, select bank1
  1193  0440  0842               	movf	(main@CLKPeriod+2)^(0+128),w
  1194  0441  1283               	bcf	3,5	;RP0=0, select bank0
  1195  0442  1303               	bcf	3,6	;RP1=0, select bank0
  1196  0443  00A6               	movwf	___flmul@a+2
  1197  0444  1683               	bsf	3,5	;RP0=1, select bank1
  1198  0445  1303               	bcf	3,6	;RP1=0, select bank1
  1199  0446  0841               	movf	(main@CLKPeriod+1)^(0+128),w
  1200  0447  1283               	bcf	3,5	;RP0=0, select bank0
  1201  0448  1303               	bcf	3,6	;RP1=0, select bank0
  1202  0449  00A5               	movwf	___flmul@a+1
  1203  044A  1683               	bsf	3,5	;RP0=1, select bank1
  1204  044B  1303               	bcf	3,6	;RP1=0, select bank1
  1205  044C  0840               	movf	main@CLKPeriod^(0+128),w
  1206  044D  1283               	bcf	3,5	;RP0=0, select bank0
  1207  044E  1303               	bcf	3,6	;RP1=0, select bank0
  1208  044F  00A4               	movwf	___flmul@a
  1209  0450  158A  24B1  118A   	fcall	___flmul
  1210  0453  1283               	bcf	3,5	;RP0=0, select bank0
  1211  0454  1303               	bcf	3,6	;RP1=0, select bank0
  1212  0455  0823               	movf	?___flmul+3,w
  1213  0456  1683               	bsf	3,5	;RP0=1, select bank1
  1214  0457  1303               	bcf	3,6	;RP1=0, select bank1
  1215  0458  00AD               	movwf	(_main$911+3)^(0+128)
  1216  0459  1283               	bcf	3,5	;RP0=0, select bank0
  1217  045A  1303               	bcf	3,6	;RP1=0, select bank0
  1218  045B  0822               	movf	?___flmul+2,w
  1219  045C  1683               	bsf	3,5	;RP0=1, select bank1
  1220  045D  1303               	bcf	3,6	;RP1=0, select bank1
  1221  045E  00AC               	movwf	(_main$911+2)^(0+128)
  1222  045F  1283               	bcf	3,5	;RP0=0, select bank0
  1223  0460  1303               	bcf	3,6	;RP1=0, select bank0
  1224  0461  0821               	movf	?___flmul+1,w
  1225  0462  1683               	bsf	3,5	;RP0=1, select bank1
  1226  0463  1303               	bcf	3,6	;RP1=0, select bank1
  1227  0464  00AB               	movwf	(_main$911+1)^(0+128)
  1228  0465  1283               	bcf	3,5	;RP0=0, select bank0
  1229  0466  1303               	bcf	3,6	;RP1=0, select bank0
  1230  0467  0820               	movf	?___flmul,w
  1231  0468  1683               	bsf	3,5	;RP0=1, select bank1
  1232  0469  1303               	bcf	3,6	;RP1=0, select bank1
  1233  046A  00AA               	movwf	_main$911^(0+128)
  1234                           
  1235                           ;main.c: 140:             unsigned char uctp;;main.c: 141:             double temp = PWM
      +                          Period / (4*CLKPeriod* priscaler);
  1236  046B  0847               	movf	(main@priscaler+3)^(0+128),w
  1237  046C  1283               	bcf	3,5	;RP0=0, select bank0
  1238  046D  1303               	bcf	3,6	;RP1=0, select bank0
  1239  046E  00A3               	movwf	___flmul@b+3
  1240  046F  1683               	bsf	3,5	;RP0=1, select bank1
  1241  0470  1303               	bcf	3,6	;RP1=0, select bank1
  1242  0471  0846               	movf	(main@priscaler+2)^(0+128),w
  1243  0472  1283               	bcf	3,5	;RP0=0, select bank0
  1244  0473  1303               	bcf	3,6	;RP1=0, select bank0
  1245  0474  00A2               	movwf	___flmul@b+2
  1246  0475  1683               	bsf	3,5	;RP0=1, select bank1
  1247  0476  1303               	bcf	3,6	;RP1=0, select bank1
  1248  0477  0845               	movf	(main@priscaler+1)^(0+128),w
  1249  0478  1283               	bcf	3,5	;RP0=0, select bank0
  1250  0479  1303               	bcf	3,6	;RP1=0, select bank0
  1251  047A  00A1               	movwf	___flmul@b+1
  1252  047B  1683               	bsf	3,5	;RP0=1, select bank1
  1253  047C  1303               	bcf	3,6	;RP1=0, select bank1
  1254  047D  0844               	movf	main@priscaler^(0+128),w
  1255  047E  1283               	bcf	3,5	;RP0=0, select bank0
  1256  047F  1303               	bcf	3,6	;RP1=0, select bank0
  1257  0480  00A0               	movwf	___flmul@b
  1258  0481  1683               	bsf	3,5	;RP0=1, select bank1
  1259  0482  1303               	bcf	3,6	;RP1=0, select bank1
  1260  0483  082D               	movf	(_main$911+3)^(0+128),w
  1261  0484  1283               	bcf	3,5	;RP0=0, select bank0
  1262  0485  1303               	bcf	3,6	;RP1=0, select bank0
  1263  0486  00A7               	movwf	___flmul@a+3
  1264  0487  1683               	bsf	3,5	;RP0=1, select bank1
  1265  0488  1303               	bcf	3,6	;RP1=0, select bank1
  1266  0489  082C               	movf	(_main$911+2)^(0+128),w
  1267  048A  1283               	bcf	3,5	;RP0=0, select bank0
  1268  048B  1303               	bcf	3,6	;RP1=0, select bank0
  1269  048C  00A6               	movwf	___flmul@a+2
  1270  048D  1683               	bsf	3,5	;RP0=1, select bank1
  1271  048E  1303               	bcf	3,6	;RP1=0, select bank1
  1272  048F  082B               	movf	(_main$911+1)^(0+128),w
  1273  0490  1283               	bcf	3,5	;RP0=0, select bank0
  1274  0491  1303               	bcf	3,6	;RP1=0, select bank0
  1275  0492  00A5               	movwf	___flmul@a+1
  1276  0493  1683               	bsf	3,5	;RP0=1, select bank1
  1277  0494  1303               	bcf	3,6	;RP1=0, select bank1
  1278  0495  082A               	movf	_main$911^(0+128),w
  1279  0496  1283               	bcf	3,5	;RP0=0, select bank0
  1280  0497  1303               	bcf	3,6	;RP1=0, select bank0
  1281  0498  00A4               	movwf	___flmul@a
  1282  0499  158A  24B1  118A   	fcall	___flmul
  1283  049C  1283               	bcf	3,5	;RP0=0, select bank0
  1284  049D  1303               	bcf	3,6	;RP1=0, select bank0
  1285  049E  0823               	movf	?___flmul+3,w
  1286  049F  00B8               	movwf	___fldiv@a+3
  1287  04A0  0822               	movf	?___flmul+2,w
  1288  04A1  00B7               	movwf	___fldiv@a+2
  1289  04A2  0821               	movf	?___flmul+1,w
  1290  04A3  00B6               	movwf	___fldiv@a+1
  1291  04A4  0820               	movf	?___flmul,w
  1292  04A5  00B5               	movwf	___fldiv@a
  1293  04A6  1683               	bsf	3,5	;RP0=1, select bank1
  1294  04A7  1303               	bcf	3,6	;RP1=0, select bank1
  1295  04A8  0832               	movf	(main@PWMPeriod+3)^(0+128),w
  1296  04A9  1283               	bcf	3,5	;RP0=0, select bank0
  1297  04AA  1303               	bcf	3,6	;RP1=0, select bank0
  1298  04AB  00BC               	movwf	___fldiv@b+3
  1299  04AC  1683               	bsf	3,5	;RP0=1, select bank1
  1300  04AD  1303               	bcf	3,6	;RP1=0, select bank1
  1301  04AE  0831               	movf	(main@PWMPeriod+2)^(0+128),w
  1302  04AF  1283               	bcf	3,5	;RP0=0, select bank0
  1303  04B0  1303               	bcf	3,6	;RP1=0, select bank0
  1304  04B1  00BB               	movwf	___fldiv@b+2
  1305  04B2  1683               	bsf	3,5	;RP0=1, select bank1
  1306  04B3  1303               	bcf	3,6	;RP1=0, select bank1
  1307  04B4  0830               	movf	(main@PWMPeriod+1)^(0+128),w
  1308  04B5  1283               	bcf	3,5	;RP0=0, select bank0
  1309  04B6  1303               	bcf	3,6	;RP1=0, select bank0
  1310  04B7  00BA               	movwf	___fldiv@b+1
  1311  04B8  1683               	bsf	3,5	;RP0=1, select bank1
  1312  04B9  1303               	bcf	3,6	;RP1=0, select bank1
  1313  04BA  082F               	movf	main@PWMPeriod^(0+128),w
  1314  04BB  1283               	bcf	3,5	;RP0=0, select bank0
  1315  04BC  1303               	bcf	3,6	;RP1=0, select bank0
  1316  04BD  00B9               	movwf	___fldiv@b
  1317  04BE  118A  211D  118A   	fcall	___fldiv
  1318  04C1  1283               	bcf	3,5	;RP0=0, select bank0
  1319  04C2  1303               	bcf	3,6	;RP1=0, select bank0
  1320  04C3  0838               	movf	?___fldiv+3,w
  1321  04C4  1683               	bsf	3,5	;RP0=1, select bank1
  1322  04C5  1303               	bcf	3,6	;RP1=0, select bank1
  1323  04C6  00B8               	movwf	(main@temp+3)^(0+128)
  1324  04C7  1283               	bcf	3,5	;RP0=0, select bank0
  1325  04C8  1303               	bcf	3,6	;RP1=0, select bank0
  1326  04C9  0837               	movf	?___fldiv+2,w
  1327  04CA  1683               	bsf	3,5	;RP0=1, select bank1
  1328  04CB  1303               	bcf	3,6	;RP1=0, select bank1
  1329  04CC  00B7               	movwf	(main@temp+2)^(0+128)
  1330  04CD  1283               	bcf	3,5	;RP0=0, select bank0
  1331  04CE  1303               	bcf	3,6	;RP1=0, select bank0
  1332  04CF  0836               	movf	?___fldiv+1,w
  1333  04D0  1683               	bsf	3,5	;RP0=1, select bank1
  1334  04D1  1303               	bcf	3,6	;RP1=0, select bank1
  1335  04D2  00B6               	movwf	(main@temp+1)^(0+128)
  1336  04D3  1283               	bcf	3,5	;RP0=0, select bank0
  1337  04D4  1303               	bcf	3,6	;RP1=0, select bank0
  1338  04D5  0835               	movf	?___fldiv,w
  1339  04D6  1683               	bsf	3,5	;RP0=1, select bank1
  1340  04D7  1303               	bcf	3,6	;RP1=0, select bank1
  1341  04D8  00B5               	movwf	main@temp^(0+128)
  1342                           
  1343                           ;main.c: 142:             while(temp>0xFF || temp <0x00){
  1344  04D9  2E3F               	goto	l2343
  1345  04DA                     l2315:
  1346                           
  1347                           ;main.c: 144:                 if(priscaler == 1.0f){
  1348  04DA  1683               	bsf	3,5	;RP0=1, select bank1
  1349  04DB  1303               	bcf	3,6	;RP1=0, select bank1
  1350  04DC  0847               	movf	(main@priscaler+3)^(0+128),w
  1351  04DD  00F3               	movwf	___fleq@ff1+3
  1352  04DE  0846               	movf	(main@priscaler+2)^(0+128),w
  1353  04DF  00F2               	movwf	___fleq@ff1+2
  1354  04E0  0845               	movf	(main@priscaler+1)^(0+128),w
  1355  04E1  00F1               	movwf	___fleq@ff1+1
  1356  04E2  0844               	movf	main@priscaler^(0+128),w
  1357  04E3  00F0               	movwf	___fleq@ff1
  1358  04E4  303F               	movlw	63
  1359  04E5  00F7               	movwf	___fleq@ff2+3
  1360  04E6  3080               	movlw	128
  1361  04E7  00F6               	movwf	___fleq@ff2+2
  1362  04E8  3000               	movlw	0
  1363  04E9  00F5               	movwf	___fleq@ff2+1
  1364  04EA  3000               	movlw	0
  1365  04EB  00F4               	movwf	___fleq@ff2
  1366  04EC  158A  21FC  118A   	fcall	___fleq
  1367  04EF  1C03               	btfss	3,0
  1368  04F0  2CF2               	goto	u2721
  1369  04F1  2CF3               	goto	u2720
  1370  04F2                     u2721:
  1371  04F2  2D04               	goto	l2321
  1372  04F3                     u2720:
  1373  04F3                     l2317:
  1374                           
  1375                           ;main.c: 145:                     T2CONbits.T2CKPS=0b01;
  1376  04F3  1283               	bcf	3,5	;RP0=0, select bank0
  1377  04F4  1303               	bcf	3,6	;RP1=0, select bank0
  1378  04F5  0812               	movf	18,w	;volatile
  1379  04F6  39FC               	andlw	-4
  1380  04F7  3801               	iorlw	1
  1381  04F8  0092               	movwf	18	;volatile
  1382  04F9                     l2319:
  1383                           
  1384                           ;main.c: 146:                     priscaler=4.0f;
  1385  04F9  3040               	movlw	64
  1386  04FA  1683               	bsf	3,5	;RP0=1, select bank1
  1387  04FB  1303               	bcf	3,6	;RP1=0, select bank1
  1388  04FC  00C7               	movwf	(main@priscaler+3)^(0+128)
  1389  04FD  3080               	movlw	128
  1390  04FE  00C6               	movwf	(main@priscaler+2)^(0+128)
  1391  04FF  3000               	movlw	0
  1392  0500  00C5               	movwf	(main@priscaler+1)^(0+128)
  1393  0501  3000               	movlw	0
  1394  0502  00C4               	movwf	main@priscaler^(0+128)
  1395                           
  1396                           ;main.c: 147:                 }
  1397  0503  2D94               	goto	l2341
  1398  0504                     l2321:
  1399  0504  1683               	bsf	3,5	;RP0=1, select bank1
  1400  0505  1303               	bcf	3,6	;RP1=0, select bank1
  1401  0506  0847               	movf	(main@priscaler+3)^(0+128),w
  1402  0507  00F3               	movwf	___fleq@ff1+3
  1403  0508  0846               	movf	(main@priscaler+2)^(0+128),w
  1404  0509  00F2               	movwf	___fleq@ff1+2
  1405  050A  0845               	movf	(main@priscaler+1)^(0+128),w
  1406  050B  00F1               	movwf	___fleq@ff1+1
  1407  050C  0844               	movf	main@priscaler^(0+128),w
  1408  050D  00F0               	movwf	___fleq@ff1
  1409  050E  3040               	movlw	64
  1410  050F  00F7               	movwf	___fleq@ff2+3
  1411  0510  3080               	movlw	128
  1412  0511  00F6               	movwf	___fleq@ff2+2
  1413  0512  3000               	movlw	0
  1414  0513  00F5               	movwf	___fleq@ff2+1
  1415  0514  3000               	movlw	0
  1416  0515  00F4               	movwf	___fleq@ff2
  1417  0516  158A  21FC  118A   	fcall	___fleq
  1418  0519  1C03               	btfss	3,0
  1419  051A  2D1C               	goto	u2731
  1420  051B  2D1D               	goto	u2730
  1421  051C                     u2731:
  1422  051C  2D2E               	goto	l2327
  1423  051D                     u2730:
  1424  051D                     l2323:
  1425                           
  1426                           ;main.c: 149:                     T2CONbits.T2CKPS=0b10;
  1427  051D  1283               	bcf	3,5	;RP0=0, select bank0
  1428  051E  1303               	bcf	3,6	;RP1=0, select bank0
  1429  051F  0812               	movf	18,w	;volatile
  1430  0520  39FC               	andlw	-4
  1431  0521  3802               	iorlw	2
  1432  0522  0092               	movwf	18	;volatile
  1433  0523                     l2325:
  1434                           
  1435                           ;main.c: 150:                     priscaler=16.0f;
  1436  0523  3041               	movlw	65
  1437  0524  1683               	bsf	3,5	;RP0=1, select bank1
  1438  0525  1303               	bcf	3,6	;RP1=0, select bank1
  1439  0526  00C7               	movwf	(main@priscaler+3)^(0+128)
  1440  0527  3080               	movlw	128
  1441  0528  00C6               	movwf	(main@priscaler+2)^(0+128)
  1442  0529  3000               	movlw	0
  1443  052A  00C5               	movwf	(main@priscaler+1)^(0+128)
  1444  052B  3000               	movlw	0
  1445  052C  00C4               	movwf	main@priscaler^(0+128)
  1446                           
  1447                           ;main.c: 151:                 }
  1448  052D  2D94               	goto	l2341
  1449  052E                     l2327:
  1450  052E  1683               	bsf	3,5	;RP0=1, select bank1
  1451  052F  1303               	bcf	3,6	;RP1=0, select bank1
  1452  0530  0847               	movf	(main@priscaler+3)^(0+128),w
  1453  0531  00F3               	movwf	___fleq@ff1+3
  1454  0532  0846               	movf	(main@priscaler+2)^(0+128),w
  1455  0533  00F2               	movwf	___fleq@ff1+2
  1456  0534  0845               	movf	(main@priscaler+1)^(0+128),w
  1457  0535  00F1               	movwf	___fleq@ff1+1
  1458  0536  0844               	movf	main@priscaler^(0+128),w
  1459  0537  00F0               	movwf	___fleq@ff1
  1460  0538  3041               	movlw	65
  1461  0539  00F7               	movwf	___fleq@ff2+3
  1462  053A  3080               	movlw	128
  1463  053B  00F6               	movwf	___fleq@ff2+2
  1464  053C  3000               	movlw	0
  1465  053D  00F5               	movwf	___fleq@ff2+1
  1466  053E  3000               	movlw	0
  1467  053F  00F4               	movwf	___fleq@ff2
  1468  0540  158A  21FC  118A   	fcall	___fleq
  1469  0543  1C03               	btfss	3,0
  1470  0544  2D46               	goto	u2741
  1471  0545  2D47               	goto	u2740
  1472  0546                     u2741:
  1473  0546  2D94               	goto	l84
  1474  0547                     u2740:
  1475  0547  2D62               	goto	l2337
  1476  0548                     l2331:
  1477                           
  1478                           ;main.c: 170:                             OSCCON = 0b0100000;
  1479  0548  3020               	movlw	32
  1480  0549  1683               	bsf	3,5	;RP0=1, select bank1
  1481  054A  1303               	bcf	3,6	;RP1=0, select bank1
  1482  054B  008F               	movwf	15	;volatile
  1483                           
  1484                           ;main.c: 171:                             CLKPeriod=1000000/250000;
  1485  054C  3040               	movlw	64
  1486  054D  00C3               	movwf	(main@CLKPeriod+3)^(0+128)
  1487  054E  3080               	movlw	128
  1488  054F  00C2               	movwf	(main@CLKPeriod+2)^(0+128)
  1489  0550  3000               	movlw	0
  1490  0551  00C1               	movwf	(main@CLKPeriod+1)^(0+128)
  1491  0552  3000               	movlw	0
  1492  0553  00C0               	movwf	main@CLKPeriod^(0+128)
  1493                           
  1494                           ;main.c: 172:                             break;
  1495  0554  2D88               	goto	l2339
  1496  0555                     l2333:
  1497                           
  1498                           ;main.c: 175:                             OSCCON = 0b0010000;
  1499  0555  3010               	movlw	16
  1500  0556  1683               	bsf	3,5	;RP0=1, select bank1
  1501  0557  1303               	bcf	3,6	;RP1=0, select bank1
  1502  0558  008F               	movwf	15	;volatile
  1503                           
  1504                           ;main.c: 176:                             CLKPeriod=1000000/125000;
  1505  0559  3041               	movlw	65
  1506  055A  00C3               	movwf	(main@CLKPeriod+3)^(0+128)
  1507  055B  3000               	movlw	0
  1508  055C  00C2               	movwf	(main@CLKPeriod+2)^(0+128)
  1509  055D  3000               	movlw	0
  1510  055E  00C1               	movwf	(main@CLKPeriod+1)^(0+128)
  1511  055F  3000               	movlw	0
  1512  0560  00C0               	movwf	main@CLKPeriod^(0+128)
  1513                           
  1514                           ;main.c: 177:                             break;
  1515  0561  2D88               	goto	l2339
  1516  0562                     l2337:
  1517  0562  1683               	bsf	3,5	;RP0=1, select bank1
  1518  0563  1303               	bcf	3,6	;RP1=0, select bank1
  1519  0564  083F               	movf	main@bits^(0+128),w
  1520  0565  1283               	bcf	3,5	;RP0=0, select bank0
  1521  0566  1303               	bcf	3,6	;RP1=0, select bank0
  1522  0567  00CF               	movwf	??_main
  1523  0568  01D0               	clrf	??_main+1
  1524                           
  1525                           ; Switch on 2 bytes has been partitioned into a top level switch of size 1, and 1 sub-sw
      +                          itches
  1526                           ; Switch size 1, requested type "simple"
  1527                           ; Number of cases is 1, Range of values is 0 to 0
  1528                           ; switch strategies available:
  1529                           ; Name         Instructions Cycles
  1530                           ; simple_byte            4     3 (average)
  1531                           ; direct_byte            9     7 (fixed)
  1532                           ; jumptable            260     6 (fixed)
  1533                           ;	Chosen strategy is simple_byte
  1534  0569  0850               	movf	??_main+1,w
  1535  056A  3A00               	xorlw	0	; case 0
  1536  056B  1903               	skipnz
  1537  056C  2D6E               	goto	l2549
  1538  056D  2D88               	goto	l2339
  1539  056E                     l2549:
  1540                           
  1541                           ; Switch size 1, requested type "simple"
  1542                           ; Number of cases is 8, Range of values is 0 to 112
  1543                           ; switch strategies available:
  1544                           ; Name         Instructions Cycles
  1545                           ; simple_byte           25    13 (average)
  1546                           ; direct_byte          233     7 (fixed)
  1547                           ; jumptable            260     6 (fixed)
  1548                           ;	Chosen strategy is simple_byte
  1549  056E  084F               	movf	??_main,w
  1550  056F  3A00               	xorlw	0	; case 0
  1551  0570  1903               	skipnz
  1552  0571  2FF7               	goto	l96
  1553  0572  3A10               	xorlw	16	; case 16
  1554  0573  1903               	skipnz
  1555  0574  2D88               	goto	l2339
  1556  0575  3A30               	xorlw	48	; case 32
  1557  0576  1903               	skipnz
  1558  0577  2D55               	goto	l2333
  1559  0578  3A10               	xorlw	16	; case 48
  1560  0579  1903               	skipnz
  1561  057A  2D48               	goto	l2331
  1562  057B  3A70               	xorlw	112	; case 64
  1563  057C  1903               	skipnz
  1564  057D  2D88               	goto	l2339
  1565  057E  3A10               	xorlw	16	; case 80
  1566  057F  1903               	skipnz
  1567  0580  2D88               	goto	l2339
  1568  0581  3A30               	xorlw	48	; case 96
  1569  0582  1903               	skipnz
  1570  0583  2D88               	goto	l2339
  1571  0584  3A10               	xorlw	16	; case 112
  1572  0585  1903               	skipnz
  1573  0586  2D88               	goto	l2339
  1574  0587  2D88               	goto	l2339
  1575  0588                     l2339:
  1576                           
  1577                           ;main.c: 186:                     bits = OSCCON & 0b1110000;
  1578  0588  1683               	bsf	3,5	;RP0=1, select bank1
  1579  0589  1303               	bcf	3,6	;RP1=0, select bank1
  1580  058A  080F               	movf	15,w	;volatile
  1581  058B  3970               	andlw	112
  1582  058C  1283               	bcf	3,5	;RP0=0, select bank0
  1583  058D  1303               	bcf	3,6	;RP1=0, select bank0
  1584  058E  00CF               	movwf	??_main
  1585  058F  084F               	movf	??_main,w
  1586  0590  1683               	bsf	3,5	;RP0=1, select bank1
  1587  0591  1303               	bcf	3,6	;RP1=0, select bank1
  1588  0592  00BF               	movwf	main@bits^(0+128)
  1589                           
  1590                           ;main.c: 187:                 }else{
  1591  0593  2D94               	goto	l2341
  1592  0594                     l84:
  1593  0594                     l2341:
  1594                           
  1595                           ;main.c: 190:                 temp = PWMPeriod / (4*CLKPeriod* priscaler);
  1596  0594  3040               	movlw	64
  1597  0595  1283               	bcf	3,5	;RP0=0, select bank0
  1598  0596  1303               	bcf	3,6	;RP1=0, select bank0
  1599  0597  00A3               	movwf	___flmul@b+3
  1600  0598  3080               	movlw	128
  1601  0599  00A2               	movwf	___flmul@b+2
  1602  059A  3000               	movlw	0
  1603  059B  00A1               	movwf	___flmul@b+1
  1604  059C  3000               	movlw	0
  1605  059D  00A0               	movwf	___flmul@b
  1606  059E  1683               	bsf	3,5	;RP0=1, select bank1
  1607  059F  1303               	bcf	3,6	;RP1=0, select bank1
  1608  05A0  0843               	movf	(main@CLKPeriod+3)^(0+128),w
  1609  05A1  1283               	bcf	3,5	;RP0=0, select bank0
  1610  05A2  1303               	bcf	3,6	;RP1=0, select bank0
  1611  05A3  00A7               	movwf	___flmul@a+3
  1612  05A4  1683               	bsf	3,5	;RP0=1, select bank1
  1613  05A5  1303               	bcf	3,6	;RP1=0, select bank1
  1614  05A6  0842               	movf	(main@CLKPeriod+2)^(0+128),w
  1615  05A7  1283               	bcf	3,5	;RP0=0, select bank0
  1616  05A8  1303               	bcf	3,6	;RP1=0, select bank0
  1617  05A9  00A6               	movwf	___flmul@a+2
  1618  05AA  1683               	bsf	3,5	;RP0=1, select bank1
  1619  05AB  1303               	bcf	3,6	;RP1=0, select bank1
  1620  05AC  0841               	movf	(main@CLKPeriod+1)^(0+128),w
  1621  05AD  1283               	bcf	3,5	;RP0=0, select bank0
  1622  05AE  1303               	bcf	3,6	;RP1=0, select bank0
  1623  05AF  00A5               	movwf	___flmul@a+1
  1624  05B0  1683               	bsf	3,5	;RP0=1, select bank1
  1625  05B1  1303               	bcf	3,6	;RP1=0, select bank1
  1626  05B2  0840               	movf	main@CLKPeriod^(0+128),w
  1627  05B3  1283               	bcf	3,5	;RP0=0, select bank0
  1628  05B4  1303               	bcf	3,6	;RP1=0, select bank0
  1629  05B5  00A4               	movwf	___flmul@a
  1630  05B6  158A  24B1  118A   	fcall	___flmul
  1631  05B9  1283               	bcf	3,5	;RP0=0, select bank0
  1632  05BA  1303               	bcf	3,6	;RP1=0, select bank0
  1633  05BB  0823               	movf	?___flmul+3,w
  1634  05BC  1683               	bsf	3,5	;RP0=1, select bank1
  1635  05BD  1303               	bcf	3,6	;RP1=0, select bank1
  1636  05BE  00AD               	movwf	(_main$911+3)^(0+128)
  1637  05BF  1283               	bcf	3,5	;RP0=0, select bank0
  1638  05C0  1303               	bcf	3,6	;RP1=0, select bank0
  1639  05C1  0822               	movf	?___flmul+2,w
  1640  05C2  1683               	bsf	3,5	;RP0=1, select bank1
  1641  05C3  1303               	bcf	3,6	;RP1=0, select bank1
  1642  05C4  00AC               	movwf	(_main$911+2)^(0+128)
  1643  05C5  1283               	bcf	3,5	;RP0=0, select bank0
  1644  05C6  1303               	bcf	3,6	;RP1=0, select bank0
  1645  05C7  0821               	movf	?___flmul+1,w
  1646  05C8  1683               	bsf	3,5	;RP0=1, select bank1
  1647  05C9  1303               	bcf	3,6	;RP1=0, select bank1
  1648  05CA  00AB               	movwf	(_main$911+1)^(0+128)
  1649  05CB  1283               	bcf	3,5	;RP0=0, select bank0
  1650  05CC  1303               	bcf	3,6	;RP1=0, select bank0
  1651  05CD  0820               	movf	?___flmul,w
  1652  05CE  1683               	bsf	3,5	;RP0=1, select bank1
  1653  05CF  1303               	bcf	3,6	;RP1=0, select bank1
  1654  05D0  00AA               	movwf	_main$911^(0+128)
  1655                           
  1656                           ;main.c: 190:                 temp = PWMPeriod / (4*CLKPeriod* priscaler);
  1657  05D1  0847               	movf	(main@priscaler+3)^(0+128),w
  1658  05D2  1283               	bcf	3,5	;RP0=0, select bank0
  1659  05D3  1303               	bcf	3,6	;RP1=0, select bank0
  1660  05D4  00A3               	movwf	___flmul@b+3
  1661  05D5  1683               	bsf	3,5	;RP0=1, select bank1
  1662  05D6  1303               	bcf	3,6	;RP1=0, select bank1
  1663  05D7  0846               	movf	(main@priscaler+2)^(0+128),w
  1664  05D8  1283               	bcf	3,5	;RP0=0, select bank0
  1665  05D9  1303               	bcf	3,6	;RP1=0, select bank0
  1666  05DA  00A2               	movwf	___flmul@b+2
  1667  05DB  1683               	bsf	3,5	;RP0=1, select bank1
  1668  05DC  1303               	bcf	3,6	;RP1=0, select bank1
  1669  05DD  0845               	movf	(main@priscaler+1)^(0+128),w
  1670  05DE  1283               	bcf	3,5	;RP0=0, select bank0
  1671  05DF  1303               	bcf	3,6	;RP1=0, select bank0
  1672  05E0  00A1               	movwf	___flmul@b+1
  1673  05E1  1683               	bsf	3,5	;RP0=1, select bank1
  1674  05E2  1303               	bcf	3,6	;RP1=0, select bank1
  1675  05E3  0844               	movf	main@priscaler^(0+128),w
  1676  05E4  1283               	bcf	3,5	;RP0=0, select bank0
  1677  05E5  1303               	bcf	3,6	;RP1=0, select bank0
  1678  05E6  00A0               	movwf	___flmul@b
  1679  05E7  1683               	bsf	3,5	;RP0=1, select bank1
  1680  05E8  1303               	bcf	3,6	;RP1=0, select bank1
  1681  05E9  082D               	movf	(_main$911+3)^(0+128),w
  1682  05EA  1283               	bcf	3,5	;RP0=0, select bank0
  1683  05EB  1303               	bcf	3,6	;RP1=0, select bank0
  1684  05EC  00A7               	movwf	___flmul@a+3
  1685  05ED  1683               	bsf	3,5	;RP0=1, select bank1
  1686  05EE  1303               	bcf	3,6	;RP1=0, select bank1
  1687  05EF  082C               	movf	(_main$911+2)^(0+128),w
  1688  05F0  1283               	bcf	3,5	;RP0=0, select bank0
  1689  05F1  1303               	bcf	3,6	;RP1=0, select bank0
  1690  05F2  00A6               	movwf	___flmul@a+2
  1691  05F3  1683               	bsf	3,5	;RP0=1, select bank1
  1692  05F4  1303               	bcf	3,6	;RP1=0, select bank1
  1693  05F5  082B               	movf	(_main$911+1)^(0+128),w
  1694  05F6  1283               	bcf	3,5	;RP0=0, select bank0
  1695  05F7  1303               	bcf	3,6	;RP1=0, select bank0
  1696  05F8  00A5               	movwf	___flmul@a+1
  1697  05F9  1683               	bsf	3,5	;RP0=1, select bank1
  1698  05FA  1303               	bcf	3,6	;RP1=0, select bank1
  1699  05FB  082A               	movf	_main$911^(0+128),w
  1700  05FC  1283               	bcf	3,5	;RP0=0, select bank0
  1701  05FD  1303               	bcf	3,6	;RP1=0, select bank0
  1702  05FE  00A4               	movwf	___flmul@a
  1703  05FF  158A  24B1  118A   	fcall	___flmul
  1704  0602  1283               	bcf	3,5	;RP0=0, select bank0
  1705  0603  1303               	bcf	3,6	;RP1=0, select bank0
  1706  0604  0823               	movf	?___flmul+3,w
  1707  0605  00B8               	movwf	___fldiv@a+3
  1708  0606  0822               	movf	?___flmul+2,w
  1709  0607  00B7               	movwf	___fldiv@a+2
  1710  0608  0821               	movf	?___flmul+1,w
  1711  0609  00B6               	movwf	___fldiv@a+1
  1712  060A  0820               	movf	?___flmul,w
  1713  060B  00B5               	movwf	___fldiv@a
  1714  060C  1683               	bsf	3,5	;RP0=1, select bank1
  1715  060D  1303               	bcf	3,6	;RP1=0, select bank1
  1716  060E  0832               	movf	(main@PWMPeriod+3)^(0+128),w
  1717  060F  1283               	bcf	3,5	;RP0=0, select bank0
  1718  0610  1303               	bcf	3,6	;RP1=0, select bank0
  1719  0611  00BC               	movwf	___fldiv@b+3
  1720  0612  1683               	bsf	3,5	;RP0=1, select bank1
  1721  0613  1303               	bcf	3,6	;RP1=0, select bank1
  1722  0614  0831               	movf	(main@PWMPeriod+2)^(0+128),w
  1723  0615  1283               	bcf	3,5	;RP0=0, select bank0
  1724  0616  1303               	bcf	3,6	;RP1=0, select bank0
  1725  0617  00BB               	movwf	___fldiv@b+2
  1726  0618  1683               	bsf	3,5	;RP0=1, select bank1
  1727  0619  1303               	bcf	3,6	;RP1=0, select bank1
  1728  061A  0830               	movf	(main@PWMPeriod+1)^(0+128),w
  1729  061B  1283               	bcf	3,5	;RP0=0, select bank0
  1730  061C  1303               	bcf	3,6	;RP1=0, select bank0
  1731  061D  00BA               	movwf	___fldiv@b+1
  1732  061E  1683               	bsf	3,5	;RP0=1, select bank1
  1733  061F  1303               	bcf	3,6	;RP1=0, select bank1
  1734  0620  082F               	movf	main@PWMPeriod^(0+128),w
  1735  0621  1283               	bcf	3,5	;RP0=0, select bank0
  1736  0622  1303               	bcf	3,6	;RP1=0, select bank0
  1737  0623  00B9               	movwf	___fldiv@b
  1738  0624  118A  211D  118A   	fcall	___fldiv
  1739  0627  1283               	bcf	3,5	;RP0=0, select bank0
  1740  0628  1303               	bcf	3,6	;RP1=0, select bank0
  1741  0629  0838               	movf	?___fldiv+3,w
  1742  062A  1683               	bsf	3,5	;RP0=1, select bank1
  1743  062B  1303               	bcf	3,6	;RP1=0, select bank1
  1744  062C  00B8               	movwf	(main@temp+3)^(0+128)
  1745  062D  1283               	bcf	3,5	;RP0=0, select bank0
  1746  062E  1303               	bcf	3,6	;RP1=0, select bank0
  1747  062F  0837               	movf	?___fldiv+2,w
  1748  0630  1683               	bsf	3,5	;RP0=1, select bank1
  1749  0631  1303               	bcf	3,6	;RP1=0, select bank1
  1750  0632  00B7               	movwf	(main@temp+2)^(0+128)
  1751  0633  1283               	bcf	3,5	;RP0=0, select bank0
  1752  0634  1303               	bcf	3,6	;RP1=0, select bank0
  1753  0635  0836               	movf	?___fldiv+1,w
  1754  0636  1683               	bsf	3,5	;RP0=1, select bank1
  1755  0637  1303               	bcf	3,6	;RP1=0, select bank1
  1756  0638  00B6               	movwf	(main@temp+1)^(0+128)
  1757  0639  1283               	bcf	3,5	;RP0=0, select bank0
  1758  063A  1303               	bcf	3,6	;RP1=0, select bank0
  1759  063B  0835               	movf	?___fldiv,w
  1760  063C  1683               	bsf	3,5	;RP0=1, select bank1
  1761  063D  1303               	bcf	3,6	;RP1=0, select bank1
  1762  063E  00B5               	movwf	main@temp^(0+128)
  1763  063F                     l2343:
  1764                           
  1765                           ;main.c: 142:             while(temp>0xFF || temp <0x00){
  1766  063F  3043               	movlw	67
  1767  0640  00F3               	movwf	___flge@ff1+3
  1768  0641  307F               	movlw	127
  1769  0642  00F2               	movwf	___flge@ff1+2
  1770  0643  3000               	movlw	0
  1771  0644  00F1               	movwf	___flge@ff1+1
  1772  0645  3000               	movlw	0
  1773  0646  00F0               	movwf	___flge@ff1
  1774  0647  0838               	movf	(main@temp+3)^(0+128),w
  1775  0648  00F7               	movwf	___flge@ff2+3
  1776  0649  0837               	movf	(main@temp+2)^(0+128),w
  1777  064A  00F6               	movwf	___flge@ff2+2
  1778  064B  0836               	movf	(main@temp+1)^(0+128),w
  1779  064C  00F5               	movwf	___flge@ff2+1
  1780  064D  0835               	movf	main@temp^(0+128),w
  1781  064E  00F4               	movwf	___flge@ff2
  1782  064F  158A  22C4  118A   	fcall	___flge
  1783  0652  1C03               	btfss	3,0
  1784  0653  2E55               	goto	u2751
  1785  0654  2E56               	goto	u2750
  1786  0655                     u2751:
  1787  0655  2CDA               	goto	l2315
  1788  0656                     u2750:
  1789  0656                     l2345:
  1790  0656  1683               	bsf	3,5	;RP0=1, select bank1
  1791  0657  1303               	bcf	3,6	;RP1=0, select bank1
  1792  0658  0838               	movf	(main@temp+3)^(0+128),w
  1793  0659  00F3               	movwf	___flge@ff1+3
  1794  065A  0837               	movf	(main@temp+2)^(0+128),w
  1795  065B  00F2               	movwf	___flge@ff1+2
  1796  065C  0836               	movf	(main@temp+1)^(0+128),w
  1797  065D  00F1               	movwf	___flge@ff1+1
  1798  065E  0835               	movf	main@temp^(0+128),w
  1799  065F  00F0               	movwf	___flge@ff1
  1800  0660  3000               	movlw	0
  1801  0661  00F7               	movwf	___flge@ff2+3
  1802  0662  3000               	movlw	0
  1803  0663  00F6               	movwf	___flge@ff2+2
  1804  0664  3000               	movlw	0
  1805  0665  00F5               	movwf	___flge@ff2+1
  1806  0666  3000               	movlw	0
  1807  0667  00F4               	movwf	___flge@ff2
  1808  0668  158A  22C4  118A   	fcall	___flge
  1809  066B  1C03               	btfss	3,0
  1810  066C  2E6E               	goto	u2761
  1811  066D  2E6F               	goto	u2760
  1812  066E                     u2761:
  1813  066E  2CDA               	goto	l2315
  1814  066F                     u2760:
  1815  066F                     l2347:
  1816                           
  1817                           ;main.c: 193:             uctp =(unsigned char)temp;
  1818  066F  1683               	bsf	3,5	;RP0=1, select bank1
  1819  0670  1303               	bcf	3,6	;RP1=0, select bank1
  1820  0671  0838               	movf	(main@temp+3)^(0+128),w
  1821  0672  00F3               	movwf	___fltol@f1+3
  1822  0673  0837               	movf	(main@temp+2)^(0+128),w
  1823  0674  00F2               	movwf	___fltol@f1+2
  1824  0675  0836               	movf	(main@temp+1)^(0+128),w
  1825  0676  00F1               	movwf	___fltol@f1+1
  1826  0677  0835               	movf	main@temp^(0+128),w
  1827  0678  00F0               	movwf	___fltol@f1
  1828  0679  158A  224A  118A   	fcall	___fltol
  1829  067C  0870               	movf	?___fltol,w
  1830  067D  1283               	bcf	3,5	;RP0=0, select bank0
  1831  067E  1303               	bcf	3,6	;RP1=0, select bank0
  1832  067F  00CF               	movwf	??_main
  1833  0680  084F               	movf	??_main,w
  1834  0681  1683               	bsf	3,5	;RP0=1, select bank1
  1835  0682  1303               	bcf	3,6	;RP1=0, select bank1
  1836  0683  00AE               	movwf	main@uctp^(0+128)
  1837  0684                     l2349:
  1838                           
  1839                           ;main.c: 194:             PR2 = uctp;
  1840  0684  082E               	movf	main@uctp^(0+128),w
  1841  0685  0092               	movwf	18	;volatile
  1842  0686                     l2351:
  1843                           
  1844                           ;main.c: 196:             double onTime = PWMPeriod / 2;
  1845  0686  3040               	movlw	64
  1846  0687  1283               	bcf	3,5	;RP0=0, select bank0
  1847  0688  1303               	bcf	3,6	;RP1=0, select bank0
  1848  0689  00B8               	movwf	___fldiv@a+3
  1849  068A  3000               	movlw	0
  1850  068B  00B7               	movwf	___fldiv@a+2
  1851  068C  3000               	movlw	0
  1852  068D  00B6               	movwf	___fldiv@a+1
  1853  068E  3000               	movlw	0
  1854  068F  00B5               	movwf	___fldiv@a
  1855  0690  1683               	bsf	3,5	;RP0=1, select bank1
  1856  0691  1303               	bcf	3,6	;RP1=0, select bank1
  1857  0692  0832               	movf	(main@PWMPeriod+3)^(0+128),w
  1858  0693  1283               	bcf	3,5	;RP0=0, select bank0
  1859  0694  1303               	bcf	3,6	;RP1=0, select bank0
  1860  0695  00BC               	movwf	___fldiv@b+3
  1861  0696  1683               	bsf	3,5	;RP0=1, select bank1
  1862  0697  1303               	bcf	3,6	;RP1=0, select bank1
  1863  0698  0831               	movf	(main@PWMPeriod+2)^(0+128),w
  1864  0699  1283               	bcf	3,5	;RP0=0, select bank0
  1865  069A  1303               	bcf	3,6	;RP1=0, select bank0
  1866  069B  00BB               	movwf	___fldiv@b+2
  1867  069C  1683               	bsf	3,5	;RP0=1, select bank1
  1868  069D  1303               	bcf	3,6	;RP1=0, select bank1
  1869  069E  0830               	movf	(main@PWMPeriod+1)^(0+128),w
  1870  069F  1283               	bcf	3,5	;RP0=0, select bank0
  1871  06A0  1303               	bcf	3,6	;RP1=0, select bank0
  1872  06A1  00BA               	movwf	___fldiv@b+1
  1873  06A2  1683               	bsf	3,5	;RP0=1, select bank1
  1874  06A3  1303               	bcf	3,6	;RP1=0, select bank1
  1875  06A4  082F               	movf	main@PWMPeriod^(0+128),w
  1876  06A5  1283               	bcf	3,5	;RP0=0, select bank0
  1877  06A6  1303               	bcf	3,6	;RP1=0, select bank0
  1878  06A7  00B9               	movwf	___fldiv@b
  1879  06A8  118A  211D  118A   	fcall	___fldiv
  1880  06AB  1283               	bcf	3,5	;RP0=0, select bank0
  1881  06AC  1303               	bcf	3,6	;RP1=0, select bank0
  1882  06AD  0838               	movf	?___fldiv+3,w
  1883  06AE  1683               	bsf	3,5	;RP0=1, select bank1
  1884  06AF  1303               	bcf	3,6	;RP1=0, select bank1
  1885  06B0  00A6               	movwf	(main@onTime+3)^(0+128)
  1886  06B1  1283               	bcf	3,5	;RP0=0, select bank0
  1887  06B2  1303               	bcf	3,6	;RP1=0, select bank0
  1888  06B3  0837               	movf	?___fldiv+2,w
  1889  06B4  1683               	bsf	3,5	;RP0=1, select bank1
  1890  06B5  1303               	bcf	3,6	;RP1=0, select bank1
  1891  06B6  00A5               	movwf	(main@onTime+2)^(0+128)
  1892  06B7  1283               	bcf	3,5	;RP0=0, select bank0
  1893  06B8  1303               	bcf	3,6	;RP1=0, select bank0
  1894  06B9  0836               	movf	?___fldiv+1,w
  1895  06BA  1683               	bsf	3,5	;RP0=1, select bank1
  1896  06BB  1303               	bcf	3,6	;RP1=0, select bank1
  1897  06BC  00A4               	movwf	(main@onTime+1)^(0+128)
  1898  06BD  1283               	bcf	3,5	;RP0=0, select bank0
  1899  06BE  1303               	bcf	3,6	;RP1=0, select bank0
  1900  06BF  0835               	movf	?___fldiv,w
  1901  06C0  1683               	bsf	3,5	;RP0=1, select bank1
  1902  06C1  1303               	bcf	3,6	;RP1=0, select bank1
  1903  06C2  00A3               	movwf	main@onTime^(0+128)
  1904  06C3                     l2353:
  1905                           
  1906                           ;main.c: 197:             double tmp = onTime / (priscaler * CLKPeriod);
  1907  06C3  0843               	movf	(main@CLKPeriod+3)^(0+128),w
  1908  06C4  1283               	bcf	3,5	;RP0=0, select bank0
  1909  06C5  1303               	bcf	3,6	;RP1=0, select bank0
  1910  06C6  00A3               	movwf	___flmul@b+3
  1911  06C7  1683               	bsf	3,5	;RP0=1, select bank1
  1912  06C8  1303               	bcf	3,6	;RP1=0, select bank1
  1913  06C9  0842               	movf	(main@CLKPeriod+2)^(0+128),w
  1914  06CA  1283               	bcf	3,5	;RP0=0, select bank0
  1915  06CB  1303               	bcf	3,6	;RP1=0, select bank0
  1916  06CC  00A2               	movwf	___flmul@b+2
  1917  06CD  1683               	bsf	3,5	;RP0=1, select bank1
  1918  06CE  1303               	bcf	3,6	;RP1=0, select bank1
  1919  06CF  0841               	movf	(main@CLKPeriod+1)^(0+128),w
  1920  06D0  1283               	bcf	3,5	;RP0=0, select bank0
  1921  06D1  1303               	bcf	3,6	;RP1=0, select bank0
  1922  06D2  00A1               	movwf	___flmul@b+1
  1923  06D3  1683               	bsf	3,5	;RP0=1, select bank1
  1924  06D4  1303               	bcf	3,6	;RP1=0, select bank1
  1925  06D5  0840               	movf	main@CLKPeriod^(0+128),w
  1926  06D6  1283               	bcf	3,5	;RP0=0, select bank0
  1927  06D7  1303               	bcf	3,6	;RP1=0, select bank0
  1928  06D8  00A0               	movwf	___flmul@b
  1929  06D9  1683               	bsf	3,5	;RP0=1, select bank1
  1930  06DA  1303               	bcf	3,6	;RP1=0, select bank1
  1931  06DB  0847               	movf	(main@priscaler+3)^(0+128),w
  1932  06DC  1283               	bcf	3,5	;RP0=0, select bank0
  1933  06DD  1303               	bcf	3,6	;RP1=0, select bank0
  1934  06DE  00A7               	movwf	___flmul@a+3
  1935  06DF  1683               	bsf	3,5	;RP0=1, select bank1
  1936  06E0  1303               	bcf	3,6	;RP1=0, select bank1
  1937  06E1  0846               	movf	(main@priscaler+2)^(0+128),w
  1938  06E2  1283               	bcf	3,5	;RP0=0, select bank0
  1939  06E3  1303               	bcf	3,6	;RP1=0, select bank0
  1940  06E4  00A6               	movwf	___flmul@a+2
  1941  06E5  1683               	bsf	3,5	;RP0=1, select bank1
  1942  06E6  1303               	bcf	3,6	;RP1=0, select bank1
  1943  06E7  0845               	movf	(main@priscaler+1)^(0+128),w
  1944  06E8  1283               	bcf	3,5	;RP0=0, select bank0
  1945  06E9  1303               	bcf	3,6	;RP1=0, select bank0
  1946  06EA  00A5               	movwf	___flmul@a+1
  1947  06EB  1683               	bsf	3,5	;RP0=1, select bank1
  1948  06EC  1303               	bcf	3,6	;RP1=0, select bank1
  1949  06ED  0844               	movf	main@priscaler^(0+128),w
  1950  06EE  1283               	bcf	3,5	;RP0=0, select bank0
  1951  06EF  1303               	bcf	3,6	;RP1=0, select bank0
  1952  06F0  00A4               	movwf	___flmul@a
  1953  06F1  158A  24B1  118A   	fcall	___flmul
  1954  06F4  1283               	bcf	3,5	;RP0=0, select bank0
  1955  06F5  1303               	bcf	3,6	;RP1=0, select bank0
  1956  06F6  0823               	movf	?___flmul+3,w
  1957  06F7  00B8               	movwf	___fldiv@a+3
  1958  06F8  0822               	movf	?___flmul+2,w
  1959  06F9  00B7               	movwf	___fldiv@a+2
  1960  06FA  0821               	movf	?___flmul+1,w
  1961  06FB  00B6               	movwf	___fldiv@a+1
  1962  06FC  0820               	movf	?___flmul,w
  1963  06FD  00B5               	movwf	___fldiv@a
  1964  06FE  1683               	bsf	3,5	;RP0=1, select bank1
  1965  06FF  1303               	bcf	3,6	;RP1=0, select bank1
  1966  0700  0826               	movf	(main@onTime+3)^(0+128),w
  1967  0701  1283               	bcf	3,5	;RP0=0, select bank0
  1968  0702  1303               	bcf	3,6	;RP1=0, select bank0
  1969  0703  00BC               	movwf	___fldiv@b+3
  1970  0704  1683               	bsf	3,5	;RP0=1, select bank1
  1971  0705  1303               	bcf	3,6	;RP1=0, select bank1
  1972  0706  0825               	movf	(main@onTime+2)^(0+128),w
  1973  0707  1283               	bcf	3,5	;RP0=0, select bank0
  1974  0708  1303               	bcf	3,6	;RP1=0, select bank0
  1975  0709  00BB               	movwf	___fldiv@b+2
  1976  070A  1683               	bsf	3,5	;RP0=1, select bank1
  1977  070B  1303               	bcf	3,6	;RP1=0, select bank1
  1978  070C  0824               	movf	(main@onTime+1)^(0+128),w
  1979  070D  1283               	bcf	3,5	;RP0=0, select bank0
  1980  070E  1303               	bcf	3,6	;RP1=0, select bank0
  1981  070F  00BA               	movwf	___fldiv@b+1
  1982  0710  1683               	bsf	3,5	;RP0=1, select bank1
  1983  0711  1303               	bcf	3,6	;RP1=0, select bank1
  1984  0712  0823               	movf	main@onTime^(0+128),w
  1985  0713  1283               	bcf	3,5	;RP0=0, select bank0
  1986  0714  1303               	bcf	3,6	;RP1=0, select bank0
  1987  0715  00B9               	movwf	___fldiv@b
  1988  0716  118A  211D  118A   	fcall	___fldiv
  1989  0719  1283               	bcf	3,5	;RP0=0, select bank0
  1990  071A  1303               	bcf	3,6	;RP1=0, select bank0
  1991  071B  0838               	movf	?___fldiv+3,w
  1992  071C  1683               	bsf	3,5	;RP0=1, select bank1
  1993  071D  1303               	bcf	3,6	;RP1=0, select bank1
  1994  071E  00BE               	movwf	(main@tmp+3)^(0+128)
  1995  071F  1283               	bcf	3,5	;RP0=0, select bank0
  1996  0720  1303               	bcf	3,6	;RP1=0, select bank0
  1997  0721  0837               	movf	?___fldiv+2,w
  1998  0722  1683               	bsf	3,5	;RP0=1, select bank1
  1999  0723  1303               	bcf	3,6	;RP1=0, select bank1
  2000  0724  00BD               	movwf	(main@tmp+2)^(0+128)
  2001  0725  1283               	bcf	3,5	;RP0=0, select bank0
  2002  0726  1303               	bcf	3,6	;RP1=0, select bank0
  2003  0727  0836               	movf	?___fldiv+1,w
  2004  0728  1683               	bsf	3,5	;RP0=1, select bank1
  2005  0729  1303               	bcf	3,6	;RP1=0, select bank1
  2006  072A  00BC               	movwf	(main@tmp+1)^(0+128)
  2007  072B  1283               	bcf	3,5	;RP0=0, select bank0
  2008  072C  1303               	bcf	3,6	;RP1=0, select bank0
  2009  072D  0835               	movf	?___fldiv,w
  2010  072E  1683               	bsf	3,5	;RP0=1, select bank1
  2011  072F  1303               	bcf	3,6	;RP1=0, select bank1
  2012  0730  00BB               	movwf	main@tmp^(0+128)
  2013  0731                     l2355:
  2014                           
  2015                           ;main.c: 198:             if(tmp> 1023 || tmp<0){
  2016  0731  3044               	movlw	68
  2017  0732  00F3               	movwf	___flge@ff1+3
  2018  0733  307F               	movlw	127
  2019  0734  00F2               	movwf	___flge@ff1+2
  2020  0735  30C0               	movlw	192
  2021  0736  00F1               	movwf	___flge@ff1+1
  2022  0737  3000               	movlw	0
  2023  0738  00F0               	movwf	___flge@ff1
  2024  0739  083E               	movf	(main@tmp+3)^(0+128),w
  2025  073A  00F7               	movwf	___flge@ff2+3
  2026  073B  083D               	movf	(main@tmp+2)^(0+128),w
  2027  073C  00F6               	movwf	___flge@ff2+2
  2028  073D  083C               	movf	(main@tmp+1)^(0+128),w
  2029  073E  00F5               	movwf	___flge@ff2+1
  2030  073F  083B               	movf	main@tmp^(0+128),w
  2031  0740  00F4               	movwf	___flge@ff2
  2032  0741  158A  22C4  118A   	fcall	___flge
  2033  0744  1C03               	btfss	3,0
  2034  0745  2F47               	goto	u2771
  2035  0746  2F48               	goto	u2770
  2036  0747                     u2771:
  2037  0747  2F5D               	goto	l2359
  2038  0748                     u2770:
  2039  0748                     l2357:
  2040  0748  1683               	bsf	3,5	;RP0=1, select bank1
  2041  0749  1303               	bcf	3,6	;RP1=0, select bank1
  2042  074A  083E               	movf	(main@tmp+3)^(0+128),w
  2043  074B  00F3               	movwf	___flge@ff1+3
  2044  074C  083D               	movf	(main@tmp+2)^(0+128),w
  2045  074D  00F2               	movwf	___flge@ff1+2
  2046  074E  083C               	movf	(main@tmp+1)^(0+128),w
  2047  074F  00F1               	movwf	___flge@ff1+1
  2048  0750  083B               	movf	main@tmp^(0+128),w
  2049  0751  00F0               	movwf	___flge@ff1
  2050  0752  3000               	movlw	0
  2051  0753  00F7               	movwf	___flge@ff2+3
  2052  0754  3000               	movlw	0
  2053  0755  00F6               	movwf	___flge@ff2+2
  2054  0756  3000               	movlw	0
  2055  0757  00F5               	movwf	___flge@ff2+1
  2056  0758  3000               	movlw	0
  2057  0759  00F4               	movwf	___flge@ff2
  2058  075A  158A  22C4  118A   	fcall	___flge
  2059  075D                     l2359:
  2060                           
  2061                           ;main.c: 203:             unsigned char tp[2];;main.c: 204:             tp[0]=((unsigned
      +                           short)tmp)/4;
  2062  075D  1683               	bsf	3,5	;RP0=1, select bank1
  2063  075E  1303               	bcf	3,6	;RP1=0, select bank1
  2064  075F  083E               	movf	(main@tmp+3)^(0+128),w
  2065  0760  00F3               	movwf	___fltol@f1+3
  2066  0761  083D               	movf	(main@tmp+2)^(0+128),w
  2067  0762  00F2               	movwf	___fltol@f1+2
  2068  0763  083C               	movf	(main@tmp+1)^(0+128),w
  2069  0764  00F1               	movwf	___fltol@f1+1
  2070  0765  083B               	movf	main@tmp^(0+128),w
  2071  0766  00F0               	movwf	___fltol@f1
  2072  0767  158A  224A  118A   	fcall	___fltol
  2073  076A  0871               	movf	?___fltol+1,w
  2074  076B  1283               	bcf	3,5	;RP0=0, select bank0
  2075  076C  1303               	bcf	3,6	;RP1=0, select bank0
  2076  076D  00D0               	movwf	??_main+1
  2077  076E  0870               	movf	?___fltol,w
  2078  076F  00CF               	movwf	??_main
  2079  0770  1003               	clrc
  2080  0771  0CD0               	rrf	??_main+1,f
  2081  0772  0CCF               	rrf	??_main,f
  2082  0773  1003               	clrc
  2083  0774  0CD0               	rrf	??_main+1,f
  2084  0775  0CCF               	rrf	??_main,f
  2085  0776  084F               	movf	??_main,w
  2086  0777  00D1               	movwf	??_main+2
  2087  0778  0851               	movf	??_main+2,w
  2088  0779  1683               	bsf	3,5	;RP0=1, select bank1
  2089  077A  1303               	bcf	3,6	;RP1=0, select bank1
  2090  077B  00B3               	movwf	main@tp^(0+128)
  2091                           
  2092                           ;main.c: 205:             tp[1]=((unsigned short)tmp)&0b11;
  2093  077C  083E               	movf	(main@tmp+3)^(0+128),w
  2094  077D  00F3               	movwf	___fltol@f1+3
  2095  077E  083D               	movf	(main@tmp+2)^(0+128),w
  2096  077F  00F2               	movwf	___fltol@f1+2
  2097  0780  083C               	movf	(main@tmp+1)^(0+128),w
  2098  0781  00F1               	movwf	___fltol@f1+1
  2099  0782  083B               	movf	main@tmp^(0+128),w
  2100  0783  00F0               	movwf	___fltol@f1
  2101  0784  158A  224A  118A   	fcall	___fltol
  2102  0787  0870               	movf	?___fltol,w
  2103  0788  3903               	andlw	3
  2104  0789  1283               	bcf	3,5	;RP0=0, select bank0
  2105  078A  1303               	bcf	3,6	;RP1=0, select bank0
  2106  078B  00CF               	movwf	??_main
  2107  078C  084F               	movf	??_main,w
  2108  078D  1683               	bsf	3,5	;RP0=1, select bank1
  2109  078E  1303               	bcf	3,6	;RP1=0, select bank1
  2110  078F  00B4               	movwf	(main@tp^(0+128)+1)
  2111  0790                     l2361:
  2112                           
  2113                           ;main.c: 207:             CCPR1L=tp[0];
  2114  0790  0833               	movf	main@tp^(0+128),w
  2115  0791  1283               	bcf	3,5	;RP0=0, select bank0
  2116  0792  1303               	bcf	3,6	;RP1=0, select bank0
  2117  0793  0095               	movwf	21	;volatile
  2118  0794                     l2363:
  2119                           
  2120                           ;main.c: 208:             CCP1CONbits.DC1B=tp[1]&0b11;
  2121  0794  1683               	bsf	3,5	;RP0=1, select bank1
  2122  0795  1303               	bcf	3,6	;RP1=0, select bank1
  2123  0796  0834               	movf	(main@tp^(0+128)+1),w
  2124  0797  3903               	andlw	3
  2125  0798  1283               	bcf	3,5	;RP0=0, select bank0
  2126  0799  1303               	bcf	3,6	;RP1=0, select bank0
  2127  079A  00CF               	movwf	??_main
  2128  079B  0ECF               	swapf	??_main,f
  2129  079C  0817               	movf	23,w	;volatile
  2130  079D  064F               	xorwf	??_main,w
  2131  079E  39CF               	andlw	-49
  2132  079F  064F               	xorwf	??_main,w
  2133  07A0  0097               	movwf	23	;volatile
  2134  07A1                     l2365:
  2135                           
  2136                           ;main.c: 209:             T2CONbits.TMR2ON = 1;
  2137  07A1  1512               	bsf	18,2	;volatile
  2138  07A2                     l2367:
  2139                           
  2140                           ;main.c: 210:             printf("PR2=%d \t CCPR1L=%x \t DC1B=%x\n",(unsigned char)uctp,
      +                          tp[0],tp[1]);
  2141  07A2  1683               	bsf	3,5	;RP0=1, select bank1
  2142  07A3  1303               	bcf	3,6	;RP1=0, select bank1
  2143  07A4  082E               	movf	main@uctp^(0+128),w
  2144  07A5  1283               	bcf	3,5	;RP0=0, select bank0
  2145  07A6  1303               	bcf	3,6	;RP1=0, select bank0
  2146  07A7  00CF               	movwf	??_main
  2147  07A8  01D0               	clrf	??_main+1
  2148  07A9  084F               	movf	??_main,w
  2149  07AA  00A0               	movwf	?_printf
  2150  07AB  0850               	movf	??_main+1,w
  2151  07AC  00A1               	movwf	?_printf+1
  2152  07AD  1683               	bsf	3,5	;RP0=1, select bank1
  2153  07AE  1303               	bcf	3,6	;RP1=0, select bank1
  2154  07AF  0833               	movf	main@tp^(0+128),w
  2155  07B0  1283               	bcf	3,5	;RP0=0, select bank0
  2156  07B1  1303               	bcf	3,6	;RP1=0, select bank0
  2157  07B2  00D1               	movwf	??_main+2
  2158  07B3  01D2               	clrf	??_main+3
  2159  07B4  0851               	movf	??_main+2,w
  2160  07B5  00A2               	movwf	?_printf+2
  2161  07B6  0852               	movf	??_main+3,w
  2162  07B7  00A3               	movwf	?_printf+3
  2163  07B8  1683               	bsf	3,5	;RP0=1, select bank1
  2164  07B9  1303               	bcf	3,6	;RP1=0, select bank1
  2165  07BA  0834               	movf	(main@tp^(0+128)+1),w
  2166  07BB  1283               	bcf	3,5	;RP0=0, select bank0
  2167  07BC  1303               	bcf	3,6	;RP1=0, select bank0
  2168  07BD  00D3               	movwf	??_main+4
  2169  07BE  01D4               	clrf	??_main+5
  2170  07BF  0853               	movf	??_main+4,w
  2171  07C0  00A4               	movwf	?_printf+4
  2172  07C1  0854               	movf	??_main+5,w
  2173  07C2  00A5               	movwf	?_printf+5
  2174  07C3  3013               	movlw	(low ((STR_3-__stringbase)| (0+32768)))& (0+255)
  2175  07C4  158A  2366  118A   	fcall	_printf
  2176  07C7                     l2369:
  2177                           
  2178                           ;main.c: 211:             if(bits==0b0110000){
  2179  07C7  3030               	movlw	48
  2180  07C8  1683               	bsf	3,5	;RP0=1, select bank1
  2181  07C9  1303               	bcf	3,6	;RP1=0, select bank1
  2182  07CA  063F               	xorwf	main@bits^(0+128),w
  2183  07CB  1D03               	btfss	3,2
  2184  07CC  2FCE               	goto	u2781
  2185  07CD  2FCF               	goto	u2780
  2186  07CE                     u2781:
  2187  07CE  2FDE               	goto	l2373
  2188  07CF                     u2780:
  2189  07CF                     l2371:
  2190                           
  2191                           ;main.c: 213:                 _delay((unsigned long)((3000)*(500000/4000.0)));
  2192  07CF  3002               	movlw	2
  2193  07D0  1283               	bcf	3,5	;RP0=0, select bank0
  2194  07D1  1303               	bcf	3,6	;RP1=0, select bank0
  2195  07D2  00D1               	movwf	??_main+2
  2196  07D3  30E7               	movlw	231
  2197  07D4  00D0               	movwf	??_main+1
  2198  07D5  3000               	movlw	0
  2199  07D6  00CF               	movwf	??_main
  2200  07D7                     u2817:
  2201  07D7  0BCF               	decfsz	??_main,f
  2202  07D8  2FD7               	goto	u2817
  2203  07D9  0BD0               	decfsz	??_main+1,f
  2204  07DA  2FD7               	goto	u2817
  2205  07DB  0BD1               	decfsz	??_main+2,f
  2206  07DC  2FD7               	goto	u2817
  2207                           
  2208                           ;main.c: 215:             }else if(bits==0b0100000){
  2209  07DD  2FEE               	goto	l104
  2210  07DE                     l2373:
  2211  07DE  3020               	movlw	32
  2212  07DF  063F               	xorwf	main@bits^(0+128),w
  2213  07E0  1D03               	btfss	3,2
  2214  07E1  2FE3               	goto	u2791
  2215  07E2  2FE4               	goto	u2790
  2216  07E3                     u2791:
  2217  07E3  2FEE               	goto	l104
  2218  07E4                     u2790:
  2219  07E4                     l2375:
  2220                           
  2221                           ;main.c: 217:                 _delay((unsigned long)((1500)*(500000/4000.0)));
  2222  07E4  30F4               	movlw	244
  2223  07E5  1283               	bcf	3,5	;RP0=0, select bank0
  2224  07E6  1303               	bcf	3,6	;RP1=0, select bank0
  2225  07E7  00D0               	movwf	??_main+1
  2226  07E8  3080               	movlw	128
  2227  07E9  00CF               	movwf	??_main
  2228  07EA                     u2827:
  2229  07EA  0BCF               	decfsz	??_main,f
  2230  07EB  2FEA               	goto	u2827
  2231  07EC  0BD0               	decfsz	??_main+1,f
  2232  07ED  2FEA               	goto	u2827
  2233  07EE                     l104:
  2234                           
  2235                           ;main.c: 221:         }
  2236  07EE  30EC               	movlw	236
  2237  07EF  1683               	bsf	3,5	;RP0=1, select bank1
  2238  07F0  1303               	bcf	3,6	;RP1=0, select bank1
  2239  07F1  07B9               	addwf	main@freq^(0+128),f
  2240  07F2  1803               	skipnc
  2241  07F3  0ABA               	incf	(main@freq+1)^(0+128),f
  2242  07F4  30FF               	movlw	255
  2243  07F5  07BA               	addwf	(main@freq+1)^(0+128),f
  2244  07F6  2B28               	goto	l2273
  2245  07F7                     l96:
  2246  07F7  118A  2800         	ljmp	start
  2247  07F9                     __end_of_main:
  2248                           
  2249                           	psect	text1
  2250  0943                     __ptext1:	
  2251 ;; *************** function _set_port *****************
  2252 ;; Defined at:
  2253 ;;		line 227 in file "main.c"
  2254 ;; Parameters:    Size  Location     Type
  2255 ;;		None
  2256 ;; Auto vars:     Size  Location     Type
  2257 ;;		None
  2258 ;; Return value:  Size  Location     Type
  2259 ;;                  1    wreg      void 
  2260 ;; Registers used:
  2261 ;;		wreg, status,2
  2262 ;; Tracked objects:
  2263 ;;		On entry : 0/0
  2264 ;;		On exit  : 0/0
  2265 ;;		Unchanged: 0/0
  2266 ;; Data sizes:     COMMON   BANK0   BANK1   BANK2
  2267 ;;      Params:         0       0       0       0
  2268 ;;      Locals:         0       0       0       0
  2269 ;;      Temps:          0       0       0       0
  2270 ;;      Totals:         0       0       0       0
  2271 ;;Total ram usage:        0 bytes
  2272 ;; Hardware stack levels used:    1
  2273 ;; This function calls:
  2274 ;;		Nothing
  2275 ;; This function is called by:
  2276 ;;		_main
  2277 ;; This function uses a non-reentrant model
  2278 ;;
  2279                           
  2280                           
  2281                           ;psect for function _set_port
  2282  0943                     _set_port:
  2283  0943                     l1731:	
  2284                           ;incstack = 0
  2285                           ; Regs used in _set_port: [wreg+status,2]
  2286                           
  2287                           
  2288                           ;main.c: 228:     ANSEL = 0b00000;
  2289  0943  1683               	bsf	3,5	;RP0=1, select bank3
  2290  0944  1703               	bsf	3,6	;RP1=1, select bank3
  2291  0945  0188               	clrf	8	;volatile
  2292                           
  2293                           ;main.c: 229:     TRISA = 0x00;
  2294  0946  1683               	bsf	3,5	;RP0=1, select bank1
  2295  0947  1303               	bcf	3,6	;RP1=0, select bank1
  2296  0948  0185               	clrf	5	;volatile
  2297  0949                     l1733:
  2298                           
  2299                           ;main.c: 230:     PORTA = 0xff;
  2300  0949  30FF               	movlw	255
  2301  094A  1283               	bcf	3,5	;RP0=0, select bank0
  2302  094B  1303               	bcf	3,6	;RP1=0, select bank0
  2303  094C  0085               	movwf	5	;volatile
  2304  094D                     l1735:
  2305                           
  2306                           ;main.c: 231:     TRISB = 0x00;
  2307  094D  1683               	bsf	3,5	;RP0=1, select bank1
  2308  094E  1303               	bcf	3,6	;RP1=0, select bank1
  2309  094F  0186               	clrf	6	;volatile
  2310  0950                     l1737:
  2311                           
  2312                           ;main.c: 232:     PORTB = 0x00;
  2313  0950  1283               	bcf	3,5	;RP0=0, select bank0
  2314  0951  1303               	bcf	3,6	;RP1=0, select bank0
  2315  0952  0186               	clrf	6	;volatile
  2316  0953                     l1739:
  2317                           
  2318                           ;main.c: 233:     TRISC = 0x00;
  2319  0953  1683               	bsf	3,5	;RP0=1, select bank1
  2320  0954  1303               	bcf	3,6	;RP1=0, select bank1
  2321  0955  0187               	clrf	7	;volatile
  2322  0956                     l110:
  2323  0956  0008               	return
  2324  0957                     __end_of_set_port:
  2325                           
  2326                           	psect	text2
  2327  0B66                     __ptext2:	
  2328 ;; *************** function _printf *****************
  2329 ;; Defined at:
  2330 ;;		line 477 in file "C:\Program Files\Microchip\xc8\v2.30\pic\sources\c90\common\doprnt.c"
  2331 ;; Parameters:    Size  Location     Type
  2332 ;;  f               1    wreg     PTR const unsigned char 
  2333 ;;		 -> STR_3(30), STR_2(15), STR_1(2), 
  2334 ;; Auto vars:     Size  Location     Type
  2335 ;;  f               1   11[BANK0 ] PTR const unsigned char 
  2336 ;;		 -> STR_3(30), STR_2(15), STR_1(2), 
  2337 ;;  idx             1    9[BANK0 ] unsigned char 
  2338 ;;  tmpval          4    0        struct .
  2339 ;;  val             2   14[BANK0 ] unsigned int 
  2340 ;;  cp              2    0        PTR const unsigned char 
  2341 ;;  len             2    0        unsigned int 
  2342 ;;  c               1   16[BANK0 ] unsigned char 
  2343 ;;  flag            1   13[BANK0 ] unsigned char 
  2344 ;;  prec            1   12[BANK0 ] char 
  2345 ;;  ap              1   10[BANK0 ] PTR void [1]
  2346 ;;		 -> ?_printf(2), 
  2347 ;; Return value:  Size  Location     Type
  2348 ;;                  2    0[BANK0 ] int 
  2349 ;; Registers used:
  2350 ;;		wreg, fsr0l, fsr0h, status,2, status,0, btemp+1, pclath, cstack
  2351 ;; Tracked objects:
  2352 ;;		On entry : 0/0
  2353 ;;		On exit  : 0/0
  2354 ;;		Unchanged: 0/0
  2355 ;; Data sizes:     COMMON   BANK0   BANK1   BANK2
  2356 ;;      Params:         0       6       0       0
  2357 ;;      Locals:         0       8       0       0
  2358 ;;      Temps:          0       3       0       0
  2359 ;;      Totals:         0      17       0       0
  2360 ;;Total ram usage:       17 bytes
  2361 ;; Hardware stack levels used:    1
  2362 ;; Hardware stack levels required when called:    1
  2363 ;; This function calls:
  2364 ;;		___lwdiv
  2365 ;;		___lwmod
  2366 ;;		_putch
  2367 ;; This function is called by:
  2368 ;;		_main
  2369 ;; This function uses a non-reentrant model
  2370 ;;
  2371                           
  2372                           
  2373                           ;psect for function _printf
  2374  0B66                     _printf:
  2375                           
  2376                           ;incstack = 0
  2377                           ; Regs used in _printf: [wreg-fsr0h+status,2+status,0+btemp+1+pclath+cstack]
  2378                           ;printf@f stored from wreg
  2379  0B66  1283               	bcf	3,5	;RP0=0, select bank0
  2380  0B67  1303               	bcf	3,6	;RP1=0, select bank0
  2381  0B68  00AB               	movwf	printf@f
  2382  0B69                     l1759:
  2383                           
  2384                           ;C:\Program Files\Microchip\xc8\v2.30\pic\sources\c90\common\doprnt.c: 477: printf(const
      +                           char * f, ...);C:\Program Files\Microchip\xc8\v2.30\pic\sources\c90\common\doprnt.c: 47
      +                          8: {;C:\Program Files\Microchip\xc8\v2.30\pic\sources\c90\common\doprnt.c: 479:  va_list
      +                           ap;;C:\Program Files\Microchip\xc8\v2.30\pic\sources\c90\common\doprnt.c: 512:  char c;
      +                          ;C:\Program Files\Microchip\xc8\v2.30\pic\sources\c90\common\doprnt.c: 521:  signed char
      +                           prec;;C:\Program Files\Microchip\xc8\v2.30\pic\sources\c90\common\doprnt.c: 525:  unsig
      +                          ned char flag;
  2385  0B69  3020               	movlw	(low (?_printf| 0))& (0+255)
  2386  0B6A  00A6               	movwf	??_printf
  2387  0B6B  0826               	movf	??_printf,w
  2388  0B6C  00AA               	movwf	printf@ap
  2389                           
  2390                           ;C:\Program Files\Microchip\xc8\v2.30\pic\sources\c90\common\doprnt.c: 553:  while((c = 
      +                          *f++)) {
  2391  0B6D  2C9E               	goto	l1829
  2392  0B6E                     l1761:
  2393                           
  2394                           ;C:\Program Files\Microchip\xc8\v2.30\pic\sources\c90\common\doprnt.c: 555:   if(c != '%
      +                          ')
  2395  0B6E  3025               	movlw	37
  2396  0B6F  0630               	xorwf	printf@c,w
  2397  0B70  1903               	btfsc	3,2
  2398  0B71  2B73               	goto	u1581
  2399  0B72  2B74               	goto	u1580
  2400  0B73                     u1581:
  2401  0B73  2B79               	goto	l1765
  2402  0B74                     u1580:
  2403  0B74                     l1763:
  2404                           
  2405                           ;C:\Program Files\Microchip\xc8\v2.30\pic\sources\c90\common\doprnt.c: 557:   {;C:\Progr
      +                          am Files\Microchip\xc8\v2.30\pic\sources\c90\common\doprnt.c: 558:    (putch(c) );
  2406  0B74  0830               	movf	printf@c,w
  2407  0B75  118A  2059  158A   	fcall	_putch
  2408                           
  2409                           ;C:\Program Files\Microchip\xc8\v2.30\pic\sources\c90\common\doprnt.c: 559:    continue;
  2410  0B78  2C9E               	goto	l1829
  2411  0B79                     l1765:
  2412                           
  2413                           ;C:\Program Files\Microchip\xc8\v2.30\pic\sources\c90\common\doprnt.c: 565:   flag = 0;
  2414  0B79  01AD               	clrf	printf@flag
  2415                           
  2416                           ;C:\Program Files\Microchip\xc8\v2.30\pic\sources\c90\common\doprnt.c: 661:   switch(c =
      +                           *f++) {
  2417  0B7A  2B7D               	goto	l1769
  2418  0B7B                     l235:	
  2419                           ;C:\Program Files\Microchip\xc8\v2.30\pic\sources\c90\common\doprnt.c: 744:   case 'x':
  2420                           
  2421                           
  2422                           ;C:\Program Files\Microchip\xc8\v2.30\pic\sources\c90\common\doprnt.c: 747:    flag |= 0
      +                          x80;
  2423  0B7B  17AD               	bsf	printf@flag,7
  2424                           
  2425                           ;C:\Program Files\Microchip\xc8\v2.30\pic\sources\c90\common\doprnt.c: 749:    break;
  2426  0B7C  2B9B               	goto	l234
  2427  0B7D                     l1769:
  2428  0B7D  3001               	movlw	1
  2429  0B7E  07AB               	addwf	printf@f,f
  2430  0B7F  30FF               	movlw	-1
  2431  0B80  072B               	addwf	printf@f,w
  2432  0B81  0084               	movwf	4
  2433  0B82  118A  2002  158A   	fcall	stringdir
  2434  0B85  00B0               	movwf	printf@c
  2435  0B86  00A6               	movwf	??_printf
  2436  0B87  01A7               	clrf	??_printf+1
  2437                           
  2438                           ; Switch on 2 bytes has been partitioned into a top level switch of size 1, and 1 sub-sw
      +                          itches
  2439                           ; Switch size 1, requested type "simple"
  2440                           ; Number of cases is 1, Range of values is 0 to 0
  2441                           ; switch strategies available:
  2442                           ; Name         Instructions Cycles
  2443                           ; simple_byte            4     3 (average)
  2444                           ; direct_byte            9     7 (fixed)
  2445                           ; jumptable            260     6 (fixed)
  2446                           ;	Chosen strategy is simple_byte
  2447  0B88  0827               	movf	??_printf+1,w
  2448  0B89  3A00               	xorlw	0	; case 0
  2449  0B8A  1903               	skipnz
  2450  0B8B  2B8D               	goto	l2551
  2451  0B8C  2C9E               	goto	l1829
  2452  0B8D                     l2551:
  2453                           
  2454                           ; Switch size 1, requested type "simple"
  2455                           ; Number of cases is 4, Range of values is 0 to 120
  2456                           ; switch strategies available:
  2457                           ; Name         Instructions Cycles
  2458                           ; simple_byte           13     7 (average)
  2459                           ; direct_byte          249     7 (fixed)
  2460                           ; jumptable            260     6 (fixed)
  2461                           ;	Chosen strategy is simple_byte
  2462  0B8D  0826               	movf	??_printf,w
  2463  0B8E  3A00               	xorlw	0	; case 0
  2464  0B8F  1903               	skipnz
  2465  0B90  2CB0               	goto	l259
  2466  0B91  3A64               	xorlw	100	; case 100
  2467  0B92  1903               	skipnz
  2468  0B93  2B9B               	goto	l234
  2469  0B94  3A0D               	xorlw	13	; case 105
  2470  0B95  1903               	skipnz
  2471  0B96  2B9B               	goto	l234
  2472  0B97  3A11               	xorlw	17	; case 120
  2473  0B98  1903               	skipnz
  2474  0B99  2B7B               	goto	l235
  2475  0B9A  2C9E               	goto	l1829
  2476  0B9B                     l234:
  2477                           
  2478                           ;C:\Program Files\Microchip\xc8\v2.30\pic\sources\c90\common\doprnt.c: 1277:   if((flag 
      +                          & 0x80) == 0x00)
  2479  0B9B  1BAD               	btfsc	printf@flag,7
  2480  0B9C  2B9E               	goto	u1591
  2481  0B9D  2B9F               	goto	u1590
  2482  0B9E                     u1591:
  2483  0B9E  2BB9               	goto	l1781
  2484  0B9F                     u1590:
  2485  0B9F                     l1771:
  2486                           
  2487                           ;C:\Program Files\Microchip\xc8\v2.30\pic\sources\c90\common\doprnt.c: 1279:   {;C:\Prog
      +                          ram Files\Microchip\xc8\v2.30\pic\sources\c90\common\doprnt.c: 1285:     val = (unsigned
      +                           int)(*(int *)__va_arg((*(int **)ap), (int)0));
  2488  0B9F  082A               	movf	printf@ap,w
  2489  0BA0  0084               	movwf	4
  2490  0BA1  1383               	bcf	3,7	;select IRP bank0
  2491  0BA2  0800               	movf	0,w
  2492  0BA3  00AE               	movwf	printf@val
  2493  0BA4  0A84               	incf	4,f
  2494  0BA5  0800               	movf	0,w
  2495  0BA6  00AF               	movwf	printf@val+1
  2496  0BA7                     l1773:
  2497  0BA7  3002               	movlw	2
  2498  0BA8  00A6               	movwf	??_printf
  2499  0BA9  0826               	movf	??_printf,w
  2500  0BAA  07AA               	addwf	printf@ap,f
  2501  0BAB                     l1775:
  2502                           
  2503                           ;C:\Program Files\Microchip\xc8\v2.30\pic\sources\c90\common\doprnt.c: 1287:    if((int)
      +                          val < 0) {
  2504  0BAB  1FAF               	btfss	printf@val+1,7
  2505  0BAC  2BAE               	goto	u1601
  2506  0BAD  2BAF               	goto	u1600
  2507  0BAE                     u1601:
  2508  0BAE  2C10               	goto	l1807
  2509  0BAF                     u1600:
  2510  0BAF                     l1777:
  2511                           
  2512                           ;C:\Program Files\Microchip\xc8\v2.30\pic\sources\c90\common\doprnt.c: 1288:     flag |=
      +                           0x03;
  2513  0BAF  3003               	movlw	3
  2514  0BB0  00A6               	movwf	??_printf
  2515  0BB1  0826               	movf	??_printf,w
  2516  0BB2  04AD               	iorwf	printf@flag,f
  2517  0BB3                     l1779:
  2518                           
  2519                           ;C:\Program Files\Microchip\xc8\v2.30\pic\sources\c90\common\doprnt.c: 1289:     val = -
      +                          val;
  2520  0BB3  09AE               	comf	printf@val,f
  2521  0BB4  09AF               	comf	printf@val+1,f
  2522  0BB5  0AAE               	incf	printf@val,f
  2523  0BB6  1903               	skipnz
  2524  0BB7  0AAF               	incf	printf@val+1,f
  2525  0BB8  2C10               	goto	l1807
  2526  0BB9                     l1781:
  2527                           
  2528                           ;C:\Program Files\Microchip\xc8\v2.30\pic\sources\c90\common\doprnt.c: 1299:   {;C:\Prog
      +                          ram Files\Microchip\xc8\v2.30\pic\sources\c90\common\doprnt.c: 1312:     val = (*(unsign
      +                          ed *)__va_arg((*(unsigned **)ap), (unsigned)0));
  2529  0BB9  082A               	movf	printf@ap,w
  2530  0BBA  0084               	movwf	4
  2531  0BBB  1383               	bcf	3,7	;select IRP bank0
  2532  0BBC  0800               	movf	0,w
  2533  0BBD  00AE               	movwf	printf@val
  2534  0BBE  0A84               	incf	4,f
  2535  0BBF  0800               	movf	0,w
  2536  0BC0  00AF               	movwf	printf@val+1
  2537  0BC1                     l1783:
  2538  0BC1  3002               	movlw	2
  2539  0BC2  00A6               	movwf	??_printf
  2540  0BC3  0826               	movf	??_printf,w
  2541  0BC4  07AA               	addwf	printf@ap,f
  2542  0BC5  2C10               	goto	l1807
  2543  0BC6                     l241:	
  2544                           ;C:\Program Files\Microchip\xc8\v2.30\pic\sources\c90\common\doprnt.c: 1325:   case 0x00
      +                          :
  2545                           
  2546                           
  2547                           ;C:\Program Files\Microchip\xc8\v2.30\pic\sources\c90\common\doprnt.c: 1331:    for(c = 
      +                          1 ; c != sizeof dpowers/sizeof dpowers[0] ; c++)
  2548  0BC6  01B0               	clrf	printf@c
  2549  0BC7  0AB0               	incf	printf@c,f
  2550  0BC8                     l1789:
  2551                           
  2552                           ;C:\Program Files\Microchip\xc8\v2.30\pic\sources\c90\common\doprnt.c: 1332:     if(val 
      +                          < dpowers[c])
  2553  0BC8  0830               	movf	printf@c,w
  2554  0BC9  00A6               	movwf	??_printf
  2555  0BCA  0726               	addwf	??_printf,w
  2556  0BCB  3E01               	addlw	low ((_dpowers-__stringbase)| (0+32768))
  2557  0BCC  0084               	movwf	4
  2558  0BCD  118A  2002  158A   	fcall	stringdir
  2559  0BD0  00A7               	movwf	??_printf+1
  2560  0BD1  118A  2002  158A   	fcall	stringdir
  2561  0BD4  00A8               	movwf	??_printf+2
  2562  0BD5  0828               	movf	??_printf+2,w
  2563  0BD6  022F               	subwf	printf@val+1,w
  2564  0BD7  1D03               	skipz
  2565  0BD8  2BDB               	goto	u1615
  2566  0BD9  0827               	movf	??_printf+1,w
  2567  0BDA  022E               	subwf	printf@val,w
  2568  0BDB                     u1615:
  2569  0BDB  1803               	skipnc
  2570  0BDC  2BDE               	goto	u1611
  2571  0BDD  2BDF               	goto	u1610
  2572  0BDE                     u1611:
  2573  0BDE  2BE0               	goto	l1793
  2574  0BDF                     u1610:
  2575  0BDF  2C21               	goto	l1809
  2576  0BE0                     l1793:
  2577  0BE0  3001               	movlw	1
  2578  0BE1  00A6               	movwf	??_printf
  2579  0BE2  0826               	movf	??_printf,w
  2580  0BE3  07B0               	addwf	printf@c,f
  2581  0BE4  3005               	movlw	5
  2582  0BE5  0630               	xorwf	printf@c,w
  2583  0BE6  1D03               	btfss	3,2
  2584  0BE7  2BE9               	goto	u1621
  2585  0BE8  2BEA               	goto	u1620
  2586  0BE9                     u1621:
  2587  0BE9  2BC8               	goto	l1789
  2588  0BEA                     u1620:
  2589  0BEA  2C21               	goto	l1809
  2590  0BEB                     l246:	
  2591                           ;C:\Program Files\Microchip\xc8\v2.30\pic\sources\c90\common\doprnt.c: 1340:   case 0x80
      +                          :
  2592                           
  2593                           
  2594                           ;C:\Program Files\Microchip\xc8\v2.30\pic\sources\c90\common\doprnt.c: 1342:    for(c = 
      +                          1 ; c != sizeof hexpowers/sizeof hexpowers[0] ; c++)
  2595  0BEB  01B0               	clrf	printf@c
  2596  0BEC  0AB0               	incf	printf@c,f
  2597  0BED                     l1799:
  2598                           
  2599                           ;C:\Program Files\Microchip\xc8\v2.30\pic\sources\c90\common\doprnt.c: 1343:     if(val 
      +                          < hexpowers[c])
  2600  0BED  0830               	movf	printf@c,w
  2601  0BEE  00A6               	movwf	??_printf
  2602  0BEF  0726               	addwf	??_printf,w
  2603  0BF0  3E0B               	addlw	low ((_hexpowers-__stringbase)| (0+32768))
  2604  0BF1  0084               	movwf	4
  2605  0BF2  118A  2002  158A   	fcall	stringdir
  2606  0BF5  00A7               	movwf	??_printf+1
  2607  0BF6  118A  2002  158A   	fcall	stringdir
  2608  0BF9  00A8               	movwf	??_printf+2
  2609  0BFA  0828               	movf	??_printf+2,w
  2610  0BFB  022F               	subwf	printf@val+1,w
  2611  0BFC  1D03               	skipz
  2612  0BFD  2C00               	goto	u1635
  2613  0BFE  0827               	movf	??_printf+1,w
  2614  0BFF  022E               	subwf	printf@val,w
  2615  0C00                     u1635:
  2616  0C00  1803               	skipnc
  2617  0C01  2C03               	goto	u1631
  2618  0C02  2C04               	goto	u1630
  2619  0C03                     u1631:
  2620  0C03  2C05               	goto	l1803
  2621  0C04                     u1630:
  2622  0C04  2C21               	goto	l1809
  2623  0C05                     l1803:
  2624  0C05  3001               	movlw	1
  2625  0C06  00A6               	movwf	??_printf
  2626  0C07  0826               	movf	??_printf,w
  2627  0C08  07B0               	addwf	printf@c,f
  2628  0C09  3004               	movlw	4
  2629  0C0A  0630               	xorwf	printf@c,w
  2630  0C0B  1D03               	btfss	3,2
  2631  0C0C  2C0E               	goto	u1641
  2632  0C0D  2C0F               	goto	u1640
  2633  0C0E                     u1641:
  2634  0C0E  2BED               	goto	l1799
  2635  0C0F                     u1640:
  2636  0C0F  2C21               	goto	l1809
  2637  0C10                     l1807:
  2638  0C10  082D               	movf	printf@flag,w
  2639  0C11  3980               	andlw	128
  2640  0C12  00A6               	movwf	??_printf
  2641  0C13  01A7               	clrf	??_printf+1
  2642                           
  2643                           ; Switch on 2 bytes has been partitioned into a top level switch of size 1, and 1 sub-sw
      +                          itches
  2644                           ; Switch size 1, requested type "simple"
  2645                           ; Number of cases is 1, Range of values is 0 to 0
  2646                           ; switch strategies available:
  2647                           ; Name         Instructions Cycles
  2648                           ; simple_byte            4     3 (average)
  2649                           ; direct_byte            9     7 (fixed)
  2650                           ; jumptable            260     6 (fixed)
  2651                           ;	Chosen strategy is simple_byte
  2652  0C14  0827               	movf	??_printf+1,w
  2653  0C15  3A00               	xorlw	0	; case 0
  2654  0C16  1903               	skipnz
  2655  0C17  2C19               	goto	l2553
  2656  0C18  2C21               	goto	l1809
  2657  0C19                     l2553:
  2658                           
  2659                           ; Switch size 1, requested type "simple"
  2660                           ; Number of cases is 2, Range of values is 0 to 128
  2661                           ; switch strategies available:
  2662                           ; Name         Instructions Cycles
  2663                           ; simple_byte            7     4 (average)
  2664                           ; jumptable            260     6 (fixed)
  2665                           ;	Chosen strategy is simple_byte
  2666  0C19  0826               	movf	??_printf,w
  2667  0C1A  3A00               	xorlw	0	; case 0
  2668  0C1B  1903               	skipnz
  2669  0C1C  2BC6               	goto	l241
  2670  0C1D  3A80               	xorlw	128	; case 128
  2671  0C1E  1903               	skipnz
  2672  0C1F  2BEB               	goto	l246
  2673  0C20  2C21               	goto	l1809
  2674  0C21                     l1809:
  2675                           
  2676                           ;C:\Program Files\Microchip\xc8\v2.30\pic\sources\c90\common\doprnt.c: 1448:   {;C:\Prog
      +                          ram Files\Microchip\xc8\v2.30\pic\sources\c90\common\doprnt.c: 1464:    if(flag & 0x03)
  2677  0C21  082D               	movf	printf@flag,w
  2678  0C22  3903               	andlw	3
  2679  0C23  1903               	btfsc	3,2
  2680  0C24  2C26               	goto	u1651
  2681  0C25  2C27               	goto	u1650
  2682  0C26                     u1651:
  2683  0C26  2C2B               	goto	l1813
  2684  0C27                     u1650:
  2685  0C27                     l1811:
  2686                           
  2687                           ;C:\Program Files\Microchip\xc8\v2.30\pic\sources\c90\common\doprnt.c: 1465:     (putch(
      +                          '-') );
  2688  0C27  302D               	movlw	45
  2689  0C28  118A  2059  158A   	fcall	_putch
  2690  0C2B                     l1813:
  2691                           
  2692                           ;C:\Program Files\Microchip\xc8\v2.30\pic\sources\c90\common\doprnt.c: 1495:   };C:\Prog
      +                          ram Files\Microchip\xc8\v2.30\pic\sources\c90\common\doprnt.c: 1498:   prec = c;
  2693  0C2B  1283               	bcf	3,5	;RP0=0, select bank0
  2694  0C2C  1303               	bcf	3,6	;RP1=0, select bank0
  2695  0C2D  0830               	movf	printf@c,w
  2696  0C2E  00A6               	movwf	??_printf
  2697  0C2F  0826               	movf	??_printf,w
  2698  0C30  00AC               	movwf	printf@prec
  2699                           
  2700                           ;C:\Program Files\Microchip\xc8\v2.30\pic\sources\c90\common\doprnt.c: 1500:   while(pre
      +                          c--) {
  2701  0C31  2C93               	goto	l1827
  2702  0C32                     l1815:
  2703                           
  2704                           ;C:\Program Files\Microchip\xc8\v2.30\pic\sources\c90\common\doprnt.c: 1515:     c = (va
      +                          l / dpowers[(unsigned char)prec]) % 10 + '0';
  2705  0C32  300A               	movlw	10
  2706  0C33  00F8               	movwf	___lwmod@divisor
  2707  0C34  3000               	movlw	0
  2708  0C35  00F9               	movwf	___lwmod@divisor+1
  2709  0C36  082C               	movf	printf@prec,w
  2710  0C37  00A6               	movwf	??_printf
  2711  0C38  0726               	addwf	??_printf,w
  2712  0C39  3E01               	addlw	low ((_dpowers-__stringbase)| (0+32768))
  2713  0C3A  0084               	movwf	4
  2714  0C3B  118A  2002  158A   	fcall	stringdir
  2715  0C3E  00F0               	movwf	___lwdiv@divisor
  2716  0C3F  118A  2002  158A   	fcall	stringdir
  2717  0C42  00F1               	movwf	___lwdiv@divisor+1
  2718  0C43  082F               	movf	printf@val+1,w
  2719  0C44  00F3               	movwf	___lwdiv@dividend+1
  2720  0C45  082E               	movf	printf@val,w
  2721  0C46  00F2               	movwf	___lwdiv@dividend
  2722  0C47  158A  21B8  158A   	fcall	___lwdiv
  2723  0C4A  0871               	movf	?___lwdiv+1,w
  2724  0C4B  00FB               	movwf	___lwmod@dividend+1
  2725  0C4C  0870               	movf	?___lwdiv,w
  2726  0C4D  00FA               	movwf	___lwmod@dividend
  2727  0C4E  158A  217E  158A   	fcall	___lwmod
  2728  0C51  0878               	movf	?___lwmod,w
  2729  0C52  3E30               	addlw	48
  2730  0C53  1283               	bcf	3,5	;RP0=0, select bank0
  2731  0C54  1303               	bcf	3,6	;RP1=0, select bank0
  2732  0C55  00A7               	movwf	??_printf+1
  2733  0C56  0827               	movf	??_printf+1,w
  2734  0C57  00B0               	movwf	printf@c
  2735                           
  2736                           ;C:\Program Files\Microchip\xc8\v2.30\pic\sources\c90\common\doprnt.c: 1517:     break;
  2737  0C58  2C8F               	goto	l1825
  2738  0C59                     l1817:
  2739                           
  2740                           ;C:\Program Files\Microchip\xc8\v2.30\pic\sources\c90\common\doprnt.c: 1525:    {;C:\Pro
      +                          gram Files\Microchip\xc8\v2.30\pic\sources\c90\common\doprnt.c: 1526:     unsigned char 
      +                          idx = (val / hexpowers[(unsigned char)prec]) & 0xF;
  2741  0C59  082C               	movf	printf@prec,w
  2742  0C5A  00A6               	movwf	??_printf
  2743  0C5B  0726               	addwf	??_printf,w
  2744  0C5C  3E0B               	addlw	low ((_hexpowers-__stringbase)| (0+32768))
  2745  0C5D  0084               	movwf	4
  2746  0C5E  118A  2002  158A   	fcall	stringdir
  2747  0C61  00F0               	movwf	___lwdiv@divisor
  2748  0C62  118A  2002  158A   	fcall	stringdir
  2749  0C65  00F1               	movwf	___lwdiv@divisor+1
  2750  0C66  082F               	movf	printf@val+1,w
  2751  0C67  00F3               	movwf	___lwdiv@dividend+1
  2752  0C68  082E               	movf	printf@val,w
  2753  0C69  00F2               	movwf	___lwdiv@dividend
  2754  0C6A  158A  21B8  158A   	fcall	___lwdiv
  2755  0C6D  0870               	movf	?___lwdiv,w
  2756  0C6E  390F               	andlw	15
  2757  0C6F  1283               	bcf	3,5	;RP0=0, select bank0
  2758  0C70  1303               	bcf	3,6	;RP1=0, select bank0
  2759  0C71  00A7               	movwf	??_printf+1
  2760  0C72  0827               	movf	??_printf+1,w
  2761  0C73  00A9               	movwf	printf@idx
  2762  0C74                     l1819:
  2763                           
  2764                           ;C:\Program Files\Microchip\xc8\v2.30\pic\sources\c90\common\doprnt.c: 1532:     c = "01
      +                          23456789abcdef"[idx];
  2765  0C74  0829               	movf	printf@idx,w
  2766  0C75  3E31               	addlw	low ((STR_4-__stringbase)| (0+32768))
  2767  0C76  0084               	movwf	4
  2768  0C77  118A  2002  158A   	fcall	stringdir
  2769  0C7A  00A6               	movwf	??_printf
  2770  0C7B  0826               	movf	??_printf,w
  2771  0C7C  00B0               	movwf	printf@c
  2772                           
  2773                           ;C:\Program Files\Microchip\xc8\v2.30\pic\sources\c90\common\doprnt.c: 1534:    };C:\Pro
      +                          gram Files\Microchip\xc8\v2.30\pic\sources\c90\common\doprnt.c: 1536:     break;
  2774  0C7D  2C8F               	goto	l1825
  2775  0C7E                     l1823:
  2776  0C7E  082D               	movf	printf@flag,w
  2777  0C7F  3980               	andlw	128
  2778  0C80  00A6               	movwf	??_printf
  2779  0C81  01A7               	clrf	??_printf+1
  2780                           
  2781                           ; Switch on 2 bytes has been partitioned into a top level switch of size 1, and 1 sub-sw
      +                          itches
  2782                           ; Switch size 1, requested type "simple"
  2783                           ; Number of cases is 1, Range of values is 0 to 0
  2784                           ; switch strategies available:
  2785                           ; Name         Instructions Cycles
  2786                           ; simple_byte            4     3 (average)
  2787                           ; direct_byte            9     7 (fixed)
  2788                           ; jumptable            260     6 (fixed)
  2789                           ;	Chosen strategy is simple_byte
  2790  0C82  0827               	movf	??_printf+1,w
  2791  0C83  3A00               	xorlw	0	; case 0
  2792  0C84  1903               	skipnz
  2793  0C85  2C87               	goto	l2555
  2794  0C86  2C8F               	goto	l1825
  2795  0C87                     l2555:
  2796                           
  2797                           ; Switch size 1, requested type "simple"
  2798                           ; Number of cases is 2, Range of values is 0 to 128
  2799                           ; switch strategies available:
  2800                           ; Name         Instructions Cycles
  2801                           ; simple_byte            7     4 (average)
  2802                           ; jumptable            260     6 (fixed)
  2803                           ;	Chosen strategy is simple_byte
  2804  0C87  0826               	movf	??_printf,w
  2805  0C88  3A00               	xorlw	0	; case 0
  2806  0C89  1903               	skipnz
  2807  0C8A  2C32               	goto	l1815
  2808  0C8B  3A80               	xorlw	128	; case 128
  2809  0C8C  1903               	skipnz
  2810  0C8D  2C59               	goto	l1817
  2811  0C8E  2C8F               	goto	l1825
  2812  0C8F                     l1825:
  2813                           
  2814                           ;C:\Program Files\Microchip\xc8\v2.30\pic\sources\c90\common\doprnt.c: 1550:    (putch(c
      +                          ) );
  2815  0C8F  0830               	movf	printf@c,w
  2816  0C90  118A  2059  158A   	fcall	_putch
  2817  0C93                     l1827:
  2818                           
  2819                           ;C:\Program Files\Microchip\xc8\v2.30\pic\sources\c90\common\doprnt.c: 1500:   while(pre
      +                          c--) {
  2820  0C93  30FF               	movlw	255
  2821  0C94  1283               	bcf	3,5	;RP0=0, select bank0
  2822  0C95  1303               	bcf	3,6	;RP1=0, select bank0
  2823  0C96  00A6               	movwf	??_printf
  2824  0C97  0826               	movf	??_printf,w
  2825  0C98  07AC               	addwf	printf@prec,f
  2826  0C99  0A2C               	incf	printf@prec,w
  2827  0C9A  1D03               	btfss	3,2
  2828  0C9B  2C9D               	goto	u1661
  2829  0C9C  2C9E               	goto	u1660
  2830  0C9D                     u1661:
  2831  0C9D  2C7E               	goto	l1823
  2832  0C9E                     u1660:
  2833  0C9E                     l1829:
  2834                           
  2835                           ;C:\Program Files\Microchip\xc8\v2.30\pic\sources\c90\common\doprnt.c: 553:  while((c = 
      +                          *f++)) {
  2836  0C9E  3001               	movlw	1
  2837  0C9F  1283               	bcf	3,5	;RP0=0, select bank0
  2838  0CA0  1303               	bcf	3,6	;RP1=0, select bank0
  2839  0CA1  07AB               	addwf	printf@f,f
  2840  0CA2  30FF               	movlw	-1
  2841  0CA3  072B               	addwf	printf@f,w
  2842  0CA4  0084               	movwf	4
  2843  0CA5  118A  2002  158A   	fcall	stringdir
  2844  0CA8  00A6               	movwf	??_printf
  2845  0CA9  0826               	movf	??_printf,w
  2846  0CAA  00B0               	movwf	printf@c
  2847  0CAB  0830               	movf	printf@c,w
  2848  0CAC  1D03               	btfss	3,2
  2849  0CAD  2CAF               	goto	u1671
  2850  0CAE  2CB0               	goto	u1670
  2851  0CAF                     u1671:
  2852  0CAF  2B6E               	goto	l1761
  2853  0CB0                     u1670:
  2854  0CB0                     l259:
  2855  0CB0  0008               	return
  2856  0CB1                     __end_of_printf:
  2857                           
  2858                           	psect	text3
  2859  0059                     __ptext3:	
  2860 ;; *************** function _putch *****************
  2861 ;; Defined at:
  2862 ;;		line 255 in file "main.c"
  2863 ;; Parameters:    Size  Location     Type
  2864 ;;  byte            1    wreg     unsigned char 
  2865 ;; Auto vars:     Size  Location     Type
  2866 ;;  byte            1    0[COMMON] unsigned char 
  2867 ;; Return value:  Size  Location     Type
  2868 ;;                  1    wreg      void 
  2869 ;; Registers used:
  2870 ;;		wreg
  2871 ;; Tracked objects:
  2872 ;;		On entry : 0/0
  2873 ;;		On exit  : 0/0
  2874 ;;		Unchanged: 0/0
  2875 ;; Data sizes:     COMMON   BANK0   BANK1   BANK2
  2876 ;;      Params:         0       0       0       0
  2877 ;;      Locals:         1       0       0       0
  2878 ;;      Temps:          0       0       0       0
  2879 ;;      Totals:         1       0       0       0
  2880 ;;Total ram usage:        1 bytes
  2881 ;; Hardware stack levels used:    1
  2882 ;; This function calls:
  2883 ;;		Nothing
  2884 ;; This function is called by:
  2885 ;;		_printf
  2886 ;;		_getche
  2887 ;; This function uses a non-reentrant model
  2888 ;;
  2889                           
  2890                           
  2891                           ;psect for function _putch
  2892  0059                     _putch:
  2893                           
  2894                           ;incstack = 0
  2895                           ; Regs used in _putch: [wreg]
  2896                           ;putch@byte stored from wreg
  2897  0059  00F0               	movwf	putch@byte
  2898  005A                     l1665:
  2899  005A                     l119:	
  2900                           ;main.c: 258:     }
  2901                           
  2902                           
  2903                           ;main.c: 257:     while(!TXIF){
  2904  005A  1283               	bcf	3,5	;RP0=0, select bank0
  2905  005B  1303               	bcf	3,6	;RP1=0, select bank0
  2906  005C  1E0C               	btfss	12,4	;volatile
  2907  005D  285F               	goto	u1411
  2908  005E  2860               	goto	u1410
  2909  005F                     u1411:
  2910  005F  285A               	goto	l119
  2911  0060                     u1410:
  2912  0060                     l1667:
  2913                           
  2914                           ;main.c: 259:     TXREG = byte;
  2915  0060  0870               	movf	putch@byte,w
  2916  0061  0099               	movwf	25	;volatile
  2917  0062                     l122:
  2918  0062  0008               	return
  2919  0063                     __end_of_putch:
  2920                           
  2921                           	psect	text4
  2922  097E                     __ptext4:	
  2923 ;; *************** function ___lwmod *****************
  2924 ;; Defined at:
  2925 ;;		line 5 in file "C:\Program Files\Microchip\xc8\v2.30\pic\sources\c90\common\lwmod.c"
  2926 ;; Parameters:    Size  Location     Type
  2927 ;;  divisor         2    8[COMMON] unsigned int 
  2928 ;;  dividend        2   10[COMMON] unsigned int 
  2929 ;; Auto vars:     Size  Location     Type
  2930 ;;  counter         1   13[COMMON] unsigned char 
  2931 ;; Return value:  Size  Location     Type
  2932 ;;                  2    8[COMMON] unsigned int 
  2933 ;; Registers used:
  2934 ;;		wreg, status,2, status,0
  2935 ;; Tracked objects:
  2936 ;;		On entry : 0/0
  2937 ;;		On exit  : 0/0
  2938 ;;		Unchanged: 0/0
  2939 ;; Data sizes:     COMMON   BANK0   BANK1   BANK2
  2940 ;;      Params:         4       0       0       0
  2941 ;;      Locals:         1       0       0       0
  2942 ;;      Temps:          1       0       0       0
  2943 ;;      Totals:         6       0       0       0
  2944 ;;Total ram usage:        6 bytes
  2945 ;; Hardware stack levels used:    1
  2946 ;; This function calls:
  2947 ;;		Nothing
  2948 ;; This function is called by:
  2949 ;;		_printf
  2950 ;; This function uses a non-reentrant model
  2951 ;;
  2952                           
  2953                           
  2954                           ;psect for function ___lwmod
  2955  097E                     ___lwmod:
  2956  097E                     l1695:	
  2957                           ;incstack = 0
  2958                           ; Regs used in ___lwmod: [wreg+status,2+status,0]
  2959                           
  2960  097E  0878               	movf	___lwmod@divisor,w
  2961  097F  0479               	iorwf	___lwmod@divisor+1,w
  2962  0980  1903               	btfsc	3,2
  2963  0981  2983               	goto	u1491
  2964  0982  2984               	goto	u1490
  2965  0983                     u1491:
  2966  0983  29B3               	goto	l1713
  2967  0984                     u1490:
  2968  0984                     l1697:
  2969  0984  01FD               	clrf	___lwmod@counter
  2970  0985  0AFD               	incf	___lwmod@counter,f
  2971  0986  2992               	goto	l1703
  2972  0987                     l1699:
  2973  0987  3001               	movlw	1
  2974  0988                     u1505:
  2975  0988  1003               	clrc
  2976  0989  0DF8               	rlf	___lwmod@divisor,f
  2977  098A  0DF9               	rlf	___lwmod@divisor+1,f
  2978  098B  3EFF               	addlw	-1
  2979  098C  1D03               	skipz
  2980  098D  2988               	goto	u1505
  2981  098E                     l1701:
  2982  098E  3001               	movlw	1
  2983  098F  00FC               	movwf	??___lwmod
  2984  0990  087C               	movf	??___lwmod,w
  2985  0991  07FD               	addwf	___lwmod@counter,f
  2986  0992                     l1703:
  2987  0992  1FF9               	btfss	___lwmod@divisor+1,7
  2988  0993  2995               	goto	u1511
  2989  0994  2996               	goto	u1510
  2990  0995                     u1511:
  2991  0995  2987               	goto	l1699
  2992  0996                     u1510:
  2993  0996                     l1705:
  2994  0996  0879               	movf	___lwmod@divisor+1,w
  2995  0997  027B               	subwf	___lwmod@dividend+1,w
  2996  0998  1D03               	skipz
  2997  0999  299C               	goto	u1525
  2998  099A  0878               	movf	___lwmod@divisor,w
  2999  099B  027A               	subwf	___lwmod@dividend,w
  3000  099C                     u1525:
  3001  099C  1C03               	skipc
  3002  099D  299F               	goto	u1521
  3003  099E  29A0               	goto	u1520
  3004  099F                     u1521:
  3005  099F  29A6               	goto	l1709
  3006  09A0                     u1520:
  3007  09A0                     l1707:
  3008  09A0  0878               	movf	___lwmod@divisor,w
  3009  09A1  02FA               	subwf	___lwmod@dividend,f
  3010  09A2  0879               	movf	___lwmod@divisor+1,w
  3011  09A3  1C03               	skipc
  3012  09A4  03FB               	decf	___lwmod@dividend+1,f
  3013  09A5  02FB               	subwf	___lwmod@dividend+1,f
  3014  09A6                     l1709:
  3015  09A6  3001               	movlw	1
  3016  09A7                     u1535:
  3017  09A7  1003               	clrc
  3018  09A8  0CF9               	rrf	___lwmod@divisor+1,f
  3019  09A9  0CF8               	rrf	___lwmod@divisor,f
  3020  09AA  3EFF               	addlw	-1
  3021  09AB  1D03               	skipz
  3022  09AC  29A7               	goto	u1535
  3023  09AD                     l1711:
  3024  09AD  3001               	movlw	1
  3025  09AE  02FD               	subwf	___lwmod@counter,f
  3026  09AF  1D03               	btfss	3,2
  3027  09B0  29B2               	goto	u1541
  3028  09B1  29B3               	goto	u1540
  3029  09B2                     u1541:
  3030  09B2  2996               	goto	l1705
  3031  09B3                     u1540:
  3032  09B3                     l1713:
  3033  09B3  087B               	movf	___lwmod@dividend+1,w
  3034  09B4  00F9               	movwf	?___lwmod+1
  3035  09B5  087A               	movf	___lwmod@dividend,w
  3036  09B6  00F8               	movwf	?___lwmod
  3037  09B7                     l545:
  3038  09B7  0008               	return
  3039  09B8                     __end_of___lwmod:
  3040                           
  3041                           	psect	text5
  3042  09B8                     __ptext5:	
  3043 ;; *************** function ___lwdiv *****************
  3044 ;; Defined at:
  3045 ;;		line 5 in file "C:\Program Files\Microchip\xc8\v2.30\pic\sources\c90\common\lwdiv.c"
  3046 ;; Parameters:    Size  Location     Type
  3047 ;;  divisor         2    0[COMMON] unsigned int 
  3048 ;;  dividend        2    2[COMMON] unsigned int 
  3049 ;; Auto vars:     Size  Location     Type
  3050 ;;  quotient        2    5[COMMON] unsigned int 
  3051 ;;  counter         1    7[COMMON] unsigned char 
  3052 ;; Return value:  Size  Location     Type
  3053 ;;                  2    0[COMMON] unsigned int 
  3054 ;; Registers used:
  3055 ;;		wreg, status,2, status,0
  3056 ;; Tracked objects:
  3057 ;;		On entry : 0/0
  3058 ;;		On exit  : 0/0
  3059 ;;		Unchanged: 0/0
  3060 ;; Data sizes:     COMMON   BANK0   BANK1   BANK2
  3061 ;;      Params:         4       0       0       0
  3062 ;;      Locals:         3       0       0       0
  3063 ;;      Temps:          1       0       0       0
  3064 ;;      Totals:         8       0       0       0
  3065 ;;Total ram usage:        8 bytes
  3066 ;; Hardware stack levels used:    1
  3067 ;; This function calls:
  3068 ;;		Nothing
  3069 ;; This function is called by:
  3070 ;;		_printf
  3071 ;; This function uses a non-reentrant model
  3072 ;;
  3073                           
  3074                           
  3075                           ;psect for function ___lwdiv
  3076  09B8                     ___lwdiv:
  3077  09B8                     l1669:	
  3078                           ;incstack = 0
  3079                           ; Regs used in ___lwdiv: [wreg+status,2+status,0]
  3080                           
  3081  09B8  01F5               	clrf	___lwdiv@quotient
  3082  09B9  01F6               	clrf	___lwdiv@quotient+1
  3083  09BA                     l1671:
  3084  09BA  0870               	movf	___lwdiv@divisor,w
  3085  09BB  0471               	iorwf	___lwdiv@divisor+1,w
  3086  09BC  1903               	btfsc	3,2
  3087  09BD  29BF               	goto	u1421
  3088  09BE  29C0               	goto	u1420
  3089  09BF                     u1421:
  3090  09BF  29F7               	goto	l1691
  3091  09C0                     u1420:
  3092  09C0                     l1673:
  3093  09C0  01F7               	clrf	___lwdiv@counter
  3094  09C1  0AF7               	incf	___lwdiv@counter,f
  3095  09C2  29CE               	goto	l1679
  3096  09C3                     l1675:
  3097  09C3  3001               	movlw	1
  3098  09C4                     u1435:
  3099  09C4  1003               	clrc
  3100  09C5  0DF0               	rlf	___lwdiv@divisor,f
  3101  09C6  0DF1               	rlf	___lwdiv@divisor+1,f
  3102  09C7  3EFF               	addlw	-1
  3103  09C8  1D03               	skipz
  3104  09C9  29C4               	goto	u1435
  3105  09CA                     l1677:
  3106  09CA  3001               	movlw	1
  3107  09CB  00F4               	movwf	??___lwdiv
  3108  09CC  0874               	movf	??___lwdiv,w
  3109  09CD  07F7               	addwf	___lwdiv@counter,f
  3110  09CE                     l1679:
  3111  09CE  1FF1               	btfss	___lwdiv@divisor+1,7
  3112  09CF  29D1               	goto	u1441
  3113  09D0  29D2               	goto	u1440
  3114  09D1                     u1441:
  3115  09D1  29C3               	goto	l1675
  3116  09D2                     u1440:
  3117  09D2                     l1681:
  3118  09D2  3001               	movlw	1
  3119  09D3                     u1455:
  3120  09D3  1003               	clrc
  3121  09D4  0DF5               	rlf	___lwdiv@quotient,f
  3122  09D5  0DF6               	rlf	___lwdiv@quotient+1,f
  3123  09D6  3EFF               	addlw	-1
  3124  09D7  1D03               	skipz
  3125  09D8  29D3               	goto	u1455
  3126  09D9  0871               	movf	___lwdiv@divisor+1,w
  3127  09DA  0273               	subwf	___lwdiv@dividend+1,w
  3128  09DB  1D03               	skipz
  3129  09DC  29DF               	goto	u1465
  3130  09DD  0870               	movf	___lwdiv@divisor,w
  3131  09DE  0272               	subwf	___lwdiv@dividend,w
  3132  09DF                     u1465:
  3133  09DF  1C03               	skipc
  3134  09E0  29E2               	goto	u1461
  3135  09E1  29E3               	goto	u1460
  3136  09E2                     u1461:
  3137  09E2  29EA               	goto	l1687
  3138  09E3                     u1460:
  3139  09E3                     l1683:
  3140  09E3  0870               	movf	___lwdiv@divisor,w
  3141  09E4  02F2               	subwf	___lwdiv@dividend,f
  3142  09E5  0871               	movf	___lwdiv@divisor+1,w
  3143  09E6  1C03               	skipc
  3144  09E7  03F3               	decf	___lwdiv@dividend+1,f
  3145  09E8  02F3               	subwf	___lwdiv@dividend+1,f
  3146  09E9                     l1685:
  3147  09E9  1475               	bsf	___lwdiv@quotient,0
  3148  09EA                     l1687:
  3149  09EA  3001               	movlw	1
  3150  09EB                     u1475:
  3151  09EB  1003               	clrc
  3152  09EC  0CF1               	rrf	___lwdiv@divisor+1,f
  3153  09ED  0CF0               	rrf	___lwdiv@divisor,f
  3154  09EE  3EFF               	addlw	-1
  3155  09EF  1D03               	skipz
  3156  09F0  29EB               	goto	u1475
  3157  09F1                     l1689:
  3158  09F1  3001               	movlw	1
  3159  09F2  02F7               	subwf	___lwdiv@counter,f
  3160  09F3  1D03               	btfss	3,2
  3161  09F4  29F6               	goto	u1481
  3162  09F5  29F7               	goto	u1480
  3163  09F6                     u1481:
  3164  09F6  29D2               	goto	l1681
  3165  09F7                     u1480:
  3166  09F7                     l1691:
  3167  09F7  0876               	movf	___lwdiv@quotient+1,w
  3168  09F8  00F1               	movwf	?___lwdiv+1
  3169  09F9  0875               	movf	___lwdiv@quotient,w
  3170  09FA  00F0               	movwf	?___lwdiv
  3171  09FB                     l535:
  3172  09FB  0008               	return
  3173  09FC                     __end_of___lwdiv:
  3174                           
  3175                           	psect	text6
  3176  0932                     __ptext6:	
  3177 ;; *************** function _init_pwm *****************
  3178 ;; Defined at:
  3179 ;;		line 237 in file "main.c"
  3180 ;; Parameters:    Size  Location     Type
  3181 ;;		None
  3182 ;; Auto vars:     Size  Location     Type
  3183 ;;		None
  3184 ;; Return value:  Size  Location     Type
  3185 ;;                  1    wreg      void 
  3186 ;; Registers used:
  3187 ;;		wreg, status,2, status,0
  3188 ;; Tracked objects:
  3189 ;;		On entry : 0/0
  3190 ;;		On exit  : 0/0
  3191 ;;		Unchanged: 0/0
  3192 ;; Data sizes:     COMMON   BANK0   BANK1   BANK2
  3193 ;;      Params:         0       0       0       0
  3194 ;;      Locals:         0       0       0       0
  3195 ;;      Temps:          0       0       0       0
  3196 ;;      Totals:         0       0       0       0
  3197 ;;Total ram usage:        0 bytes
  3198 ;; Hardware stack levels used:    1
  3199 ;; This function calls:
  3200 ;;		Nothing
  3201 ;; This function is called by:
  3202 ;;		_main
  3203 ;; This function uses a non-reentrant model
  3204 ;;
  3205                           
  3206                           
  3207                           ;psect for function _init_pwm
  3208  0932                     _init_pwm:
  3209  0932                     l1743:	
  3210                           ;incstack = 0
  3211                           ; Regs used in _init_pwm: [wreg+status,2+status,0]
  3212                           
  3213                           
  3214                           ;main.c: 238:     OSCCON = 0b0110000;
  3215  0932  3030               	movlw	48
  3216  0933  1683               	bsf	3,5	;RP0=1, select bank1
  3217  0934  1303               	bcf	3,6	;RP1=0, select bank1
  3218  0935  008F               	movwf	15	;volatile
  3219  0936                     l1745:
  3220                           
  3221                           ;main.c: 240:     CCP1CONbits.CCP1M=0b1100;
  3222  0936  1283               	bcf	3,5	;RP0=0, select bank0
  3223  0937  1303               	bcf	3,6	;RP1=0, select bank0
  3224  0938  0817               	movf	23,w	;volatile
  3225  0939  39F0               	andlw	-16
  3226  093A  380C               	iorlw	12
  3227  093B  0097               	movwf	23	;volatile
  3228  093C                     l1747:
  3229                           
  3230                           ;main.c: 241:     CCP1CONbits.P1M0=0;
  3231  093C  1317               	bcf	23,6	;volatile
  3232  093D                     l1749:
  3233                           
  3234                           ;main.c: 242:     CCP1CONbits.P1M1=0;
  3235  093D  1397               	bcf	23,7	;volatile
  3236  093E                     l1751:
  3237                           
  3238                           ;main.c: 243:     T2CONbits.T2CKPS=0b01;
  3239  093E  0812               	movf	18,w	;volatile
  3240  093F  39FC               	andlw	-4
  3241  0940  3801               	iorlw	1
  3242  0941  0092               	movwf	18	;volatile
  3243  0942                     l113:
  3244  0942  0008               	return
  3245  0943                     __end_of_init_pwm:
  3246                           
  3247                           	psect	text7
  3248  0921                     __ptext7:	
  3249 ;; *************** function _initUART *****************
  3250 ;; Defined at:
  3251 ;;		line 246 in file "main.c"
  3252 ;; Parameters:    Size  Location     Type
  3253 ;;		None
  3254 ;; Auto vars:     Size  Location     Type
  3255 ;;		None
  3256 ;; Return value:  Size  Location     Type
  3257 ;;                  1    wreg      void 
  3258 ;; Registers used:
  3259 ;;		wreg
  3260 ;; Tracked objects:
  3261 ;;		On entry : 0/0
  3262 ;;		On exit  : 0/0
  3263 ;;		Unchanged: 0/0
  3264 ;; Data sizes:     COMMON   BANK0   BANK1   BANK2
  3265 ;;      Params:         0       0       0       0
  3266 ;;      Locals:         0       0       0       0
  3267 ;;      Temps:          0       0       0       0
  3268 ;;      Totals:         0       0       0       0
  3269 ;;Total ram usage:        0 bytes
  3270 ;; Hardware stack levels used:    1
  3271 ;; This function calls:
  3272 ;;		Nothing
  3273 ;; This function is called by:
  3274 ;;		_main
  3275 ;; This function uses a non-reentrant model
  3276 ;;
  3277                           
  3278                           
  3279                           ;psect for function _initUART
  3280  0921                     _initUART:
  3281  0921                     l1753:	
  3282                           ;incstack = 0
  3283                           ; Regs used in _initUART: [wreg]
  3284                           
  3285                           
  3286                           ;main.c: 248:     SPBRG = ((unsigned char)(((500000 / 16) / 2400) - 1));
  3287  0921  300C               	movlw	12
  3288  0922  1683               	bsf	3,5	;RP0=1, select bank1
  3289  0923  1303               	bcf	3,6	;RP1=0, select bank1
  3290  0924  0099               	movwf	25	;volatile
  3291                           
  3292                           ;main.c: 249:     TXSTA = (0x00 | 0x04 | 0x20);
  3293  0925  3024               	movlw	36
  3294  0926  0098               	movwf	24	;volatile
  3295                           
  3296                           ;main.c: 250:     RCSTA = (0x00 | 0x90);
  3297  0927  3090               	movlw	144
  3298  0928  1283               	bcf	3,5	;RP0=0, select bank0
  3299  0929  1303               	bcf	3,6	;RP1=0, select bank0
  3300  092A  0098               	movwf	24	;volatile
  3301  092B                     l1755:
  3302                           
  3303                           ;main.c: 251:     TXSTAbits.TXEN = 1;
  3304  092B  1683               	bsf	3,5	;RP0=1, select bank1
  3305  092C  1303               	bcf	3,6	;RP1=0, select bank1
  3306  092D  1698               	bsf	24,5	;volatile
  3307  092E                     l1757:
  3308                           
  3309                           ;main.c: 252:     RCSTAbits.SPEN = 1;
  3310  092E  1283               	bcf	3,5	;RP0=0, select bank0
  3311  092F  1303               	bcf	3,6	;RP1=0, select bank0
  3312  0930  1798               	bsf	24,7	;volatile
  3313  0931                     l116:
  3314  0931  0008               	return
  3315  0932                     __end_of_initUART:
  3316                           
  3317                           	psect	text8
  3318  0063                     __ptext8:	
  3319 ;; *************** function ___xxtofl *****************
  3320 ;; Defined at:
  3321 ;;		line 10 in file "C:\Program Files\Microchip\xc8\v2.30\pic\sources\c90\common\xxtofl.c"
  3322 ;; Parameters:    Size  Location     Type
  3323 ;;  sign            1    wreg     unsigned char 
  3324 ;;  val             4    0[COMMON] long 
  3325 ;; Auto vars:     Size  Location     Type
  3326 ;;  sign            1    8[COMMON] unsigned char 
  3327 ;;  arg             4   10[COMMON] unsigned long 
  3328 ;;  exp             1    9[COMMON] unsigned char 
  3329 ;; Return value:  Size  Location     Type
  3330 ;;                  4    0[COMMON] unsigned char 
  3331 ;; Registers used:
  3332 ;;		wreg, status,2, status,0
  3333 ;; Tracked objects:
  3334 ;;		On entry : 0/0
  3335 ;;		On exit  : 0/0
  3336 ;;		Unchanged: 0/0
  3337 ;; Data sizes:     COMMON   BANK0   BANK1   BANK2
  3338 ;;      Params:         4       0       0       0
  3339 ;;      Locals:         6       0       0       0
  3340 ;;      Temps:          4       0       0       0
  3341 ;;      Totals:        14       0       0       0
  3342 ;;Total ram usage:       14 bytes
  3343 ;; Hardware stack levels used:    1
  3344 ;; This function calls:
  3345 ;;		Nothing
  3346 ;; This function is called by:
  3347 ;;		_main
  3348 ;; This function uses a non-reentrant model
  3349 ;;
  3350                           
  3351                           
  3352                           ;psect for function ___xxtofl
  3353  0063                     ___xxtofl:
  3354                           
  3355                           ;incstack = 0
  3356                           ; Regs used in ___xxtofl: [wreg+status,2+status,0]
  3357                           ;___xxtofl@sign stored from wreg
  3358  0063  00F8               	movwf	___xxtofl@sign
  3359  0064                     l2199:
  3360  0064  0878               	movf	___xxtofl@sign,w
  3361  0065  1903               	btfsc	3,2
  3362  0066  2868               	goto	u2541
  3363  0067  2869               	goto	u2540
  3364  0068                     u2541:
  3365  0068  287D               	goto	l2205
  3366  0069                     u2540:
  3367  0069                     l2201:
  3368  0069  1FF3               	btfss	___xxtofl@val+3,7
  3369  006A  286C               	goto	u2551
  3370  006B  286D               	goto	u2550
  3371  006C                     u2551:
  3372  006C  287D               	goto	l2205
  3373  006D                     u2550:
  3374  006D                     l2203:
  3375  006D  0970               	comf	___xxtofl@val,w
  3376  006E  00FA               	movwf	___xxtofl@arg
  3377  006F  0971               	comf	___xxtofl@val+1,w
  3378  0070  00FB               	movwf	___xxtofl@arg+1
  3379  0071  0972               	comf	___xxtofl@val+2,w
  3380  0072  00FC               	movwf	___xxtofl@arg+2
  3381  0073  0973               	comf	___xxtofl@val+3,w
  3382  0074  00FD               	movwf	___xxtofl@arg+3
  3383  0075  0AFA               	incf	___xxtofl@arg,f
  3384  0076  1903               	skipnz
  3385  0077  0AFB               	incf	___xxtofl@arg+1,f
  3386  0078  1903               	skipnz
  3387  0079  0AFC               	incf	___xxtofl@arg+2,f
  3388  007A  1903               	skipnz
  3389  007B  0AFD               	incf	___xxtofl@arg+3,f
  3390  007C  2885               	goto	l696
  3391  007D                     l2205:
  3392  007D  0873               	movf	___xxtofl@val+3,w
  3393  007E  00FD               	movwf	___xxtofl@arg+3
  3394  007F  0872               	movf	___xxtofl@val+2,w
  3395  0080  00FC               	movwf	___xxtofl@arg+2
  3396  0081  0871               	movf	___xxtofl@val+1,w
  3397  0082  00FB               	movwf	___xxtofl@arg+1
  3398  0083  0870               	movf	___xxtofl@val,w
  3399  0084  00FA               	movwf	___xxtofl@arg
  3400  0085                     l696:
  3401  0085  0873               	movf	___xxtofl@val+3,w
  3402  0086  0472               	iorwf	___xxtofl@val+2,w
  3403  0087  0471               	iorwf	___xxtofl@val+1,w
  3404  0088  0470               	iorwf	___xxtofl@val,w
  3405  0089  1D03               	skipz
  3406  008A  288C               	goto	u2561
  3407  008B  288D               	goto	u2560
  3408  008C                     u2561:
  3409  008C  2896               	goto	l2211
  3410  008D                     u2560:
  3411  008D                     l2207:
  3412  008D  3000               	movlw	0
  3413  008E  00F3               	movwf	?___xxtofl+3
  3414  008F  3000               	movlw	0
  3415  0090  00F2               	movwf	?___xxtofl+2
  3416  0091  3000               	movlw	0
  3417  0092  00F1               	movwf	?___xxtofl+1
  3418  0093  3000               	movlw	0
  3419  0094  00F0               	movwf	?___xxtofl
  3420  0095  291C               	goto	l698
  3421  0096                     l2211:
  3422  0096  3096               	movlw	150
  3423  0097  00F4               	movwf	??___xxtofl
  3424  0098  0874               	movf	??___xxtofl,w
  3425  0099  00F9               	movwf	___xxtofl@exp
  3426  009A  28A8               	goto	l2215
  3427  009B                     l2213:
  3428  009B  3001               	movlw	1
  3429  009C  00F4               	movwf	??___xxtofl
  3430  009D  0874               	movf	??___xxtofl,w
  3431  009E  07F9               	addwf	___xxtofl@exp,f
  3432  009F  3001               	movlw	1
  3433  00A0                     u2575:
  3434  00A0  1003               	clrc
  3435  00A1  0CFD               	rrf	___xxtofl@arg+3,f
  3436  00A2  0CFC               	rrf	___xxtofl@arg+2,f
  3437  00A3  0CFB               	rrf	___xxtofl@arg+1,f
  3438  00A4  0CFA               	rrf	___xxtofl@arg,f
  3439  00A5  3EFF               	addlw	-1
  3440  00A6  1D03               	skipz
  3441  00A7  28A0               	goto	u2575
  3442  00A8                     l2215:
  3443  00A8  30FE               	movlw	254
  3444  00A9  057D               	andwf	___xxtofl@arg+3,w
  3445  00AA  1D03               	btfss	3,2
  3446  00AB  28AD               	goto	u2581
  3447  00AC  28AE               	goto	u2580
  3448  00AD                     u2581:
  3449  00AD  289B               	goto	l2213
  3450  00AE                     u2580:
  3451  00AE  28CA               	goto	l702
  3452  00AF                     l2217:
  3453  00AF  3001               	movlw	1
  3454  00B0  00F4               	movwf	??___xxtofl
  3455  00B1  0874               	movf	??___xxtofl,w
  3456  00B2  07F9               	addwf	___xxtofl@exp,f
  3457  00B3                     l2219:
  3458  00B3  3001               	movlw	1
  3459  00B4  07FA               	addwf	___xxtofl@arg,f
  3460  00B5  3000               	movlw	0
  3461  00B6  1803               	skipnc
  3462  00B7  3001               	movlw	1
  3463  00B8  07FB               	addwf	___xxtofl@arg+1,f
  3464  00B9  3000               	movlw	0
  3465  00BA  1803               	skipnc
  3466  00BB  3001               	movlw	1
  3467  00BC  07FC               	addwf	___xxtofl@arg+2,f
  3468  00BD  3000               	movlw	0
  3469  00BE  1803               	skipnc
  3470  00BF  3001               	movlw	1
  3471  00C0  07FD               	addwf	___xxtofl@arg+3,f
  3472  00C1                     l2221:
  3473  00C1  3001               	movlw	1
  3474  00C2                     u2595:
  3475  00C2  1003               	clrc
  3476  00C3  0CFD               	rrf	___xxtofl@arg+3,f
  3477  00C4  0CFC               	rrf	___xxtofl@arg+2,f
  3478  00C5  0CFB               	rrf	___xxtofl@arg+1,f
  3479  00C6  0CFA               	rrf	___xxtofl@arg,f
  3480  00C7  3EFF               	addlw	-1
  3481  00C8  1D03               	skipz
  3482  00C9  28C2               	goto	u2595
  3483  00CA                     l702:
  3484  00CA  30FF               	movlw	255
  3485  00CB  057D               	andwf	___xxtofl@arg+3,w
  3486  00CC  1D03               	btfss	3,2
  3487  00CD  28CF               	goto	u2601
  3488  00CE  28D0               	goto	u2600
  3489  00CF                     u2601:
  3490  00CF  28AF               	goto	l2217
  3491  00D0                     u2600:
  3492  00D0  28DC               	goto	l2225
  3493  00D1                     l2223:
  3494  00D1  3001               	movlw	1
  3495  00D2  02F9               	subwf	___xxtofl@exp,f
  3496  00D3  3001               	movlw	1
  3497  00D4  00F4               	movwf	??___xxtofl
  3498  00D5                     u2615:
  3499  00D5  1003               	clrc
  3500  00D6  0DFA               	rlf	___xxtofl@arg,f
  3501  00D7  0DFB               	rlf	___xxtofl@arg+1,f
  3502  00D8  0DFC               	rlf	___xxtofl@arg+2,f
  3503  00D9  0DFD               	rlf	___xxtofl@arg+3,f
  3504  00DA  0BF4               	decfsz	??___xxtofl,f
  3505  00DB  28D5               	goto	u2615
  3506  00DC                     l2225:
  3507  00DC  1BFC               	btfsc	___xxtofl@arg+2,7
  3508  00DD  28DF               	goto	u2621
  3509  00DE  28E0               	goto	u2620
  3510  00DF                     u2621:
  3511  00DF  28E6               	goto	l709
  3512  00E0                     u2620:
  3513  00E0                     l2227:
  3514  00E0  3002               	movlw	2
  3515  00E1  0279               	subwf	___xxtofl@exp,w
  3516  00E2  1803               	skipnc
  3517  00E3  28E5               	goto	u2631
  3518  00E4  28E6               	goto	u2630
  3519  00E5                     u2631:
  3520  00E5  28D1               	goto	l2223
  3521  00E6                     u2630:
  3522  00E6                     l709:
  3523  00E6  1879               	btfsc	___xxtofl@exp,0
  3524  00E7  28E9               	goto	u2641
  3525  00E8  28EA               	goto	u2640
  3526  00E9                     u2641:
  3527  00E9  28F2               	goto	l710
  3528  00EA                     u2640:
  3529  00EA                     l2229:
  3530  00EA  30FF               	movlw	255
  3531  00EB  05FA               	andwf	___xxtofl@arg,f
  3532  00EC  30FF               	movlw	255
  3533  00ED  05FB               	andwf	___xxtofl@arg+1,f
  3534  00EE  307F               	movlw	127
  3535  00EF  05FC               	andwf	___xxtofl@arg+2,f
  3536  00F0  30FF               	movlw	255
  3537  00F1  05FD               	andwf	___xxtofl@arg+3,f
  3538  00F2                     l710:
  3539  00F2  1003               	clrc
  3540  00F3  0CF9               	rrf	___xxtofl@exp,f
  3541  00F4                     l2231:
  3542  00F4  0879               	movf	___xxtofl@exp,w
  3543  00F5  00F4               	movwf	??___xxtofl
  3544  00F6  01F5               	clrf	??___xxtofl+1
  3545  00F7  01F6               	clrf	??___xxtofl+2
  3546  00F8  01F7               	clrf	??___xxtofl+3
  3547  00F9  3018               	movlw	24
  3548  00FA                     u2655:
  3549  00FA  1003               	clrc
  3550  00FB  0DF4               	rlf	??___xxtofl,f
  3551  00FC  0DF5               	rlf	??___xxtofl+1,f
  3552  00FD  0DF6               	rlf	??___xxtofl+2,f
  3553  00FE  0DF7               	rlf	??___xxtofl+3,f
  3554  00FF                     u2650:
  3555  00FF  3EFF               	addlw	-1
  3556  0100  1D03               	skipz
  3557  0101  28FA               	goto	u2655
  3558  0102  0874               	movf	??___xxtofl,w
  3559  0103  04FA               	iorwf	___xxtofl@arg,f
  3560  0104  0875               	movf	??___xxtofl+1,w
  3561  0105  04FB               	iorwf	___xxtofl@arg+1,f
  3562  0106  0876               	movf	??___xxtofl+2,w
  3563  0107  04FC               	iorwf	___xxtofl@arg+2,f
  3564  0108  0877               	movf	??___xxtofl+3,w
  3565  0109  04FD               	iorwf	___xxtofl@arg+3,f
  3566  010A                     l2233:
  3567  010A  0878               	movf	___xxtofl@sign,w
  3568  010B  1903               	btfsc	3,2
  3569  010C  290E               	goto	u2661
  3570  010D  290F               	goto	u2660
  3571  010E                     u2661:
  3572  010E  2914               	goto	l2239
  3573  010F                     u2660:
  3574  010F                     l2235:
  3575  010F  1FF3               	btfss	___xxtofl@val+3,7
  3576  0110  2912               	goto	u2671
  3577  0111  2913               	goto	u2670
  3578  0112                     u2671:
  3579  0112  2914               	goto	l2239
  3580  0113                     u2670:
  3581  0113                     l2237:
  3582  0113  17FD               	bsf	___xxtofl@arg+3,7
  3583  0114                     l2239:
  3584  0114  087D               	movf	___xxtofl@arg+3,w
  3585  0115  00F3               	movwf	?___xxtofl+3
  3586  0116  087C               	movf	___xxtofl@arg+2,w
  3587  0117  00F2               	movwf	?___xxtofl+2
  3588  0118  087B               	movf	___xxtofl@arg+1,w
  3589  0119  00F1               	movwf	?___xxtofl+1
  3590  011A  087A               	movf	___xxtofl@arg,w
  3591  011B  00F0               	movwf	?___xxtofl
  3592  011C                     l698:
  3593  011C  0008               	return
  3594  011D                     __end_of___xxtofl:
  3595                           
  3596                           	psect	text9
  3597  0A4A                     __ptext9:	
  3598 ;; *************** function ___fltol *****************
  3599 ;; Defined at:
  3600 ;;		line 43 in file "C:\Program Files\Microchip\xc8\v2.30\pic\sources\c90\common\fltol.c"
  3601 ;; Parameters:    Size  Location     Type
  3602 ;;  f1              4    0[COMMON] unsigned char 
  3603 ;; Auto vars:     Size  Location     Type
  3604 ;;  exp1            1   10[COMMON] unsigned char 
  3605 ;;  sign1           1    9[COMMON] unsigned char 
  3606 ;; Return value:  Size  Location     Type
  3607 ;;                  4    0[COMMON] long 
  3608 ;; Registers used:
  3609 ;;		wreg, status,2, status,0
  3610 ;; Tracked objects:
  3611 ;;		On entry : 0/0
  3612 ;;		On exit  : 0/0
  3613 ;;		Unchanged: 0/0
  3614 ;; Data sizes:     COMMON   BANK0   BANK1   BANK2
  3615 ;;      Params:         4       0       0       0
  3616 ;;      Locals:         2       0       0       0
  3617 ;;      Temps:          5       0       0       0
  3618 ;;      Totals:        11       0       0       0
  3619 ;;Total ram usage:       11 bytes
  3620 ;; Hardware stack levels used:    1
  3621 ;; This function calls:
  3622 ;;		Nothing
  3623 ;; This function is called by:
  3624 ;;		_main
  3625 ;; This function uses a non-reentrant model
  3626 ;;
  3627                           
  3628                           
  3629                           ;psect for function ___fltol
  3630  0A4A                     ___fltol:
  3631  0A4A                     l1881:	
  3632                           ;incstack = 0
  3633                           ; Regs used in ___fltol: [wreg+status,2+status,0]
  3634                           
  3635  0A4A  1003               	clrc
  3636  0A4B  0D72               	rlf	___fltol@f1+2,w
  3637  0A4C  0D73               	rlf	___fltol@f1+3,w
  3638  0A4D  00F4               	movwf	??___fltol
  3639  0A4E  0874               	movf	??___fltol,w
  3640  0A4F  00FA               	movwf	___fltol@exp1
  3641  0A50  087A               	movf	___fltol@exp1,w
  3642  0A51  1D03               	btfss	3,2
  3643  0A52  2A54               	goto	u1781
  3644  0A53  2A55               	goto	u1780
  3645  0A54                     u1781:
  3646  0A54  2A5E               	goto	l1887
  3647  0A55                     u1780:
  3648  0A55                     l1883:
  3649  0A55  3000               	movlw	0
  3650  0A56  00F3               	movwf	?___fltol+3
  3651  0A57  3000               	movlw	0
  3652  0A58  00F2               	movwf	?___fltol+2
  3653  0A59  3000               	movlw	0
  3654  0A5A  00F1               	movwf	?___fltol+1
  3655  0A5B  3000               	movlw	0
  3656  0A5C  00F0               	movwf	?___fltol
  3657  0A5D  2AC3               	goto	l449
  3658  0A5E                     l1887:
  3659  0A5E  0870               	movf	___fltol@f1,w
  3660  0A5F  00F4               	movwf	??___fltol
  3661  0A60  0871               	movf	___fltol@f1+1,w
  3662  0A61  00F5               	movwf	??___fltol+1
  3663  0A62  0872               	movf	___fltol@f1+2,w
  3664  0A63  00F6               	movwf	??___fltol+2
  3665  0A64  0873               	movf	___fltol@f1+3,w
  3666  0A65  00F7               	movwf	??___fltol+3
  3667  0A66  301F               	movlw	31
  3668  0A67                     u1795:
  3669  0A67  1003               	clrc
  3670  0A68  0CF7               	rrf	??___fltol+3,f
  3671  0A69  0CF6               	rrf	??___fltol+2,f
  3672  0A6A  0CF5               	rrf	??___fltol+1,f
  3673  0A6B  0CF4               	rrf	??___fltol,f
  3674  0A6C                     u1790:
  3675  0A6C  3EFF               	addlw	-1
  3676  0A6D  1D03               	skipz
  3677  0A6E  2A67               	goto	u1795
  3678  0A6F  0874               	movf	??___fltol,w
  3679  0A70  00F8               	movwf	??___fltol+4
  3680  0A71  0878               	movf	??___fltol+4,w
  3681  0A72  00F9               	movwf	___fltol@sign1
  3682  0A73                     l1889:
  3683  0A73  17F2               	bsf	___fltol@f1+2,7
  3684  0A74                     l1891:
  3685  0A74  30FF               	movlw	255
  3686  0A75  05F0               	andwf	___fltol@f1,f
  3687  0A76  30FF               	movlw	255
  3688  0A77  05F1               	andwf	___fltol@f1+1,f
  3689  0A78  30FF               	movlw	255
  3690  0A79  05F2               	andwf	___fltol@f1+2,f
  3691  0A7A  3000               	movlw	0
  3692  0A7B  05F3               	andwf	___fltol@f1+3,f
  3693  0A7C                     l1893:
  3694  0A7C  3096               	movlw	150
  3695  0A7D  02FA               	subwf	___fltol@exp1,f
  3696  0A7E                     l1895:
  3697  0A7E  1FFA               	btfss	___fltol@exp1,7
  3698  0A7F  2A81               	goto	u1801
  3699  0A80  2A82               	goto	u1800
  3700  0A81                     u1801:
  3701  0A81  2A9C               	goto	l1905
  3702  0A82                     u1800:
  3703  0A82                     l1897:
  3704  0A82  087A               	movf	___fltol@exp1,w
  3705  0A83  3A80               	xorlw	128
  3706  0A84  3E97               	addlw	151
  3707  0A85  1803               	skipnc
  3708  0A86  2A88               	goto	u1811
  3709  0A87  2A89               	goto	u1810
  3710  0A88                     u1811:
  3711  0A88  2A8A               	goto	l1903
  3712  0A89                     u1810:
  3713  0A89  2A55               	goto	l1883
  3714  0A8A                     l1903:
  3715  0A8A  3001               	movlw	1
  3716  0A8B                     u1825:
  3717  0A8B  1003               	clrc
  3718  0A8C  0CF3               	rrf	___fltol@f1+3,f
  3719  0A8D  0CF2               	rrf	___fltol@f1+2,f
  3720  0A8E  0CF1               	rrf	___fltol@f1+1,f
  3721  0A8F  0CF0               	rrf	___fltol@f1,f
  3722  0A90  3EFF               	addlw	-1
  3723  0A91  1D03               	skipz
  3724  0A92  2A8B               	goto	u1825
  3725  0A93  3001               	movlw	1
  3726  0A94  00F4               	movwf	??___fltol
  3727  0A95  0874               	movf	??___fltol,w
  3728  0A96  07FA               	addwf	___fltol@exp1,f
  3729  0A97  1D03               	btfss	3,2
  3730  0A98  2A9A               	goto	u1831
  3731  0A99  2A9B               	goto	u1830
  3732  0A9A                     u1831:
  3733  0A9A  2A8A               	goto	l1903
  3734  0A9B                     u1830:
  3735  0A9B  2AB3               	goto	l1913
  3736  0A9C                     l1905:
  3737  0A9C  3020               	movlw	32
  3738  0A9D  027A               	subwf	___fltol@exp1,w
  3739  0A9E  1C03               	skipc
  3740  0A9F  2AA1               	goto	u1841
  3741  0AA0  2AA2               	goto	u1840
  3742  0AA1                     u1841:
  3743  0AA1  2AAE               	goto	l456
  3744  0AA2                     u1840:
  3745  0AA2  2A55               	goto	l1883
  3746  0AA3                     l1911:
  3747  0AA3  3001               	movlw	1
  3748  0AA4  00F4               	movwf	??___fltol
  3749  0AA5                     u1855:
  3750  0AA5  1003               	clrc
  3751  0AA6  0DF0               	rlf	___fltol@f1,f
  3752  0AA7  0DF1               	rlf	___fltol@f1+1,f
  3753  0AA8  0DF2               	rlf	___fltol@f1+2,f
  3754  0AA9  0DF3               	rlf	___fltol@f1+3,f
  3755  0AAA  0BF4               	decfsz	??___fltol,f
  3756  0AAB  2AA5               	goto	u1855
  3757  0AAC  3001               	movlw	1
  3758  0AAD  02FA               	subwf	___fltol@exp1,f
  3759  0AAE                     l456:
  3760  0AAE  087A               	movf	___fltol@exp1,w
  3761  0AAF  1D03               	btfss	3,2
  3762  0AB0  2AB2               	goto	u1861
  3763  0AB1  2AB3               	goto	u1860
  3764  0AB2                     u1861:
  3765  0AB2  2AA3               	goto	l1911
  3766  0AB3                     u1860:
  3767  0AB3                     l1913:
  3768  0AB3  0879               	movf	___fltol@sign1,w
  3769  0AB4  1903               	btfsc	3,2
  3770  0AB5  2AB7               	goto	u1871
  3771  0AB6  2AB8               	goto	u1870
  3772  0AB7                     u1871:
  3773  0AB7  2AC3               	goto	l459
  3774  0AB8                     u1870:
  3775  0AB8                     l1915:
  3776  0AB8  09F0               	comf	___fltol@f1,f
  3777  0AB9  09F1               	comf	___fltol@f1+1,f
  3778  0ABA  09F2               	comf	___fltol@f1+2,f
  3779  0ABB  09F3               	comf	___fltol@f1+3,f
  3780  0ABC  0AF0               	incf	___fltol@f1,f
  3781  0ABD  1903               	skipnz
  3782  0ABE  0AF1               	incf	___fltol@f1+1,f
  3783  0ABF  1903               	skipnz
  3784  0AC0  0AF2               	incf	___fltol@f1+2,f
  3785  0AC1  1903               	skipnz
  3786  0AC2  0AF3               	incf	___fltol@f1+3,f
  3787  0AC3                     l459:
  3788  0AC3                     l449:
  3789  0AC3  0008               	return
  3790  0AC4                     __end_of___fltol:
  3791                           
  3792                           	psect	text10
  3793  0CB1                     __ptext10:	
  3794 ;; *************** function ___flmul *****************
  3795 ;; Defined at:
  3796 ;;		line 8 in file "C:\Program Files\Microchip\xc8\v2.30\pic\sources\c90\common\sprcmul.c"
  3797 ;; Parameters:    Size  Location     Type
  3798 ;;  b               4    0[BANK0 ] long 
  3799 ;;  a               4    4[BANK0 ] long 
  3800 ;; Auto vars:     Size  Location     Type
  3801 ;;  prod            4   15[BANK0 ] struct .
  3802 ;;  grs             4    9[BANK0 ] unsigned long 
  3803 ;;  temp            2   19[BANK0 ] struct .
  3804 ;;  bexp            1   14[BANK0 ] unsigned char 
  3805 ;;  aexp            1   13[BANK0 ] unsigned char 
  3806 ;;  sign            1    8[BANK0 ] unsigned char 
  3807 ;; Return value:  Size  Location     Type
  3808 ;;                  4    0[BANK0 ] unsigned char 
  3809 ;; Registers used:
  3810 ;;		wreg, status,2, status,0, btemp+1, pclath, cstack
  3811 ;; Tracked objects:
  3812 ;;		On entry : 0/0
  3813 ;;		On exit  : 0/0
  3814 ;;		Unchanged: 0/0
  3815 ;; Data sizes:     COMMON   BANK0   BANK1   BANK2
  3816 ;;      Params:         0       8       0       0
  3817 ;;      Locals:         0      13       0       0
  3818 ;;      Temps:          5       0       0       0
  3819 ;;      Totals:         5      21       0       0
  3820 ;;Total ram usage:       26 bytes
  3821 ;; Hardware stack levels used:    1
  3822 ;; Hardware stack levels required when called:    1
  3823 ;; This function calls:
  3824 ;;		__Umul8_16
  3825 ;; This function is called by:
  3826 ;;		_main
  3827 ;; This function uses a non-reentrant model
  3828 ;;
  3829                           
  3830                           
  3831                           ;psect for function ___flmul
  3832  0CB1                     ___flmul:
  3833  0CB1                     l2059:	
  3834                           ;incstack = 0
  3835                           ; Regs used in ___flmul: [wreg+status,2+status,0+btemp+1+pclath+cstack]
  3836                           
  3837  0CB1  1283               	bcf	3,5	;RP0=0, select bank0
  3838  0CB2  1303               	bcf	3,6	;RP1=0, select bank0
  3839  0CB3  0823               	movf	___flmul@b+3,w
  3840  0CB4  3980               	andlw	128
  3841  0CB5  00F9               	movwf	??___flmul
  3842  0CB6  0879               	movf	??___flmul,w
  3843  0CB7  00A8               	movwf	___flmul@sign
  3844  0CB8                     l2061:
  3845  0CB8  0823               	movf	___flmul@b+3,w
  3846  0CB9  00F9               	movwf	??___flmul
  3847  0CBA  0779               	addwf	??___flmul,w
  3848  0CBB  00FA               	movwf	??___flmul+1
  3849  0CBC  087A               	movf	??___flmul+1,w
  3850  0CBD  00AE               	movwf	___flmul@bexp
  3851  0CBE                     l2063:
  3852  0CBE  1FA2               	btfss	___flmul@b+2,7
  3853  0CBF  2CC1               	goto	u2171
  3854  0CC0  2CC2               	goto	u2170
  3855  0CC1                     u2171:
  3856  0CC1  2CC3               	goto	l2067
  3857  0CC2                     u2170:
  3858  0CC2                     l2065:
  3859  0CC2  142E               	bsf	___flmul@bexp,0
  3860  0CC3                     l2067:
  3861  0CC3  082E               	movf	___flmul@bexp,w
  3862  0CC4  1903               	btfsc	3,2
  3863  0CC5  2CC7               	goto	u2181
  3864  0CC6  2CC8               	goto	u2180
  3865  0CC7                     u2181:
  3866  0CC7  2CD7               	goto	l2075
  3867  0CC8                     u2180:
  3868  0CC8                     l2069:
  3869  0CC8  0A2E               	incf	___flmul@bexp,w
  3870  0CC9  1D03               	btfss	3,2
  3871  0CCA  2CCC               	goto	u2191
  3872  0CCB  2CCD               	goto	u2190
  3873  0CCC                     u2191:
  3874  0CCC  2CD5               	goto	l2073
  3875  0CCD                     u2190:
  3876  0CCD                     l2071:
  3877  0CCD  3000               	movlw	0
  3878  0CCE  00A3               	movwf	___flmul@b+3
  3879  0CCF  3000               	movlw	0
  3880  0CD0  00A2               	movwf	___flmul@b+2
  3881  0CD1  3000               	movlw	0
  3882  0CD2  00A1               	movwf	___flmul@b+1
  3883  0CD3  3000               	movlw	0
  3884  0CD4  00A0               	movwf	___flmul@b
  3885  0CD5                     l2073:
  3886  0CD5  17A2               	bsf	___flmul@b+2,7
  3887  0CD6  2CDF               	goto	l2077
  3888  0CD7                     l2075:
  3889  0CD7  3000               	movlw	0
  3890  0CD8  00A3               	movwf	___flmul@b+3
  3891  0CD9  3000               	movlw	0
  3892  0CDA  00A2               	movwf	___flmul@b+2
  3893  0CDB  3000               	movlw	0
  3894  0CDC  00A1               	movwf	___flmul@b+1
  3895  0CDD  3000               	movlw	0
  3896  0CDE  00A0               	movwf	___flmul@b
  3897  0CDF                     l2077:
  3898  0CDF  0827               	movf	___flmul@a+3,w
  3899  0CE0  3980               	andlw	128
  3900  0CE1  00F9               	movwf	??___flmul
  3901  0CE2  0879               	movf	??___flmul,w
  3902  0CE3  06A8               	xorwf	___flmul@sign,f
  3903  0CE4                     l2079:
  3904  0CE4  0827               	movf	___flmul@a+3,w
  3905  0CE5  00F9               	movwf	??___flmul
  3906  0CE6  0779               	addwf	??___flmul,w
  3907  0CE7  00FA               	movwf	??___flmul+1
  3908  0CE8  087A               	movf	??___flmul+1,w
  3909  0CE9  00AD               	movwf	___flmul@aexp
  3910  0CEA                     l2081:
  3911  0CEA  1FA6               	btfss	___flmul@a+2,7
  3912  0CEB  2CED               	goto	u2201
  3913  0CEC  2CEE               	goto	u2200
  3914  0CED                     u2201:
  3915  0CED  2CEF               	goto	l2085
  3916  0CEE                     u2200:
  3917  0CEE                     l2083:
  3918  0CEE  142D               	bsf	___flmul@aexp,0
  3919  0CEF                     l2085:
  3920  0CEF  082D               	movf	___flmul@aexp,w
  3921  0CF0  1903               	btfsc	3,2
  3922  0CF1  2CF3               	goto	u2211
  3923  0CF2  2CF4               	goto	u2210
  3924  0CF3                     u2211:
  3925  0CF3  2D03               	goto	l2093
  3926  0CF4                     u2210:
  3927  0CF4                     l2087:
  3928  0CF4  0A2D               	incf	___flmul@aexp,w
  3929  0CF5  1D03               	btfss	3,2
  3930  0CF6  2CF8               	goto	u2221
  3931  0CF7  2CF9               	goto	u2220
  3932  0CF8                     u2221:
  3933  0CF8  2D01               	goto	l2091
  3934  0CF9                     u2220:
  3935  0CF9                     l2089:
  3936  0CF9  3000               	movlw	0
  3937  0CFA  00A7               	movwf	___flmul@a+3
  3938  0CFB  3000               	movlw	0
  3939  0CFC  00A6               	movwf	___flmul@a+2
  3940  0CFD  3000               	movlw	0
  3941  0CFE  00A5               	movwf	___flmul@a+1
  3942  0CFF  3000               	movlw	0
  3943  0D00  00A4               	movwf	___flmul@a
  3944  0D01                     l2091:
  3945  0D01  17A6               	bsf	___flmul@a+2,7
  3946  0D02  2D0B               	goto	l2095
  3947  0D03                     l2093:
  3948  0D03  3000               	movlw	0
  3949  0D04  00A7               	movwf	___flmul@a+3
  3950  0D05  3000               	movlw	0
  3951  0D06  00A6               	movwf	___flmul@a+2
  3952  0D07  3000               	movlw	0
  3953  0D08  00A5               	movwf	___flmul@a+1
  3954  0D09  3000               	movlw	0
  3955  0D0A  00A4               	movwf	___flmul@a
  3956  0D0B                     l2095:
  3957  0D0B  082D               	movf	___flmul@aexp,w
  3958  0D0C  1903               	btfsc	3,2
  3959  0D0D  2D0F               	goto	u2231
  3960  0D0E  2D10               	goto	u2230
  3961  0D0F                     u2231:
  3962  0D0F  2D15               	goto	l2099
  3963  0D10                     u2230:
  3964  0D10                     l2097:
  3965  0D10  082E               	movf	___flmul@bexp,w
  3966  0D11  1D03               	btfss	3,2
  3967  0D12  2D14               	goto	u2241
  3968  0D13  2D15               	goto	u2240
  3969  0D14                     u2241:
  3970  0D14  2D1E               	goto	l2103
  3971  0D15                     u2240:
  3972  0D15                     l2099:
  3973  0D15  3000               	movlw	0
  3974  0D16  00A3               	movwf	?___flmul+3
  3975  0D17  3000               	movlw	0
  3976  0D18  00A2               	movwf	?___flmul+2
  3977  0D19  3000               	movlw	0
  3978  0D1A  00A1               	movwf	?___flmul+1
  3979  0D1B  3000               	movlw	0
  3980  0D1C  00A0               	movwf	?___flmul
  3981  0D1D  2FFF               	goto	l652
  3982  0D1E                     l2103:
  3983  0D1E  0820               	movf	___flmul@b,w
  3984  0D1F  00F9               	movwf	??___flmul
  3985  0D20  0879               	movf	??___flmul,w
  3986  0D21  00F0               	movwf	__Umul8_16@multiplicand
  3987  0D22  0826               	movf	___flmul@a+2,w
  3988  0D23  158A  2157  158A   	fcall	__Umul8_16
  3989  0D26  0871               	movf	?__Umul8_16+1,w
  3990  0D27  1283               	bcf	3,5	;RP0=0, select bank0
  3991  0D28  1303               	bcf	3,6	;RP1=0, select bank0
  3992  0D29  00B4               	movwf	___flmul@temp+1
  3993  0D2A  0870               	movf	?__Umul8_16,w
  3994  0D2B  00B3               	movwf	___flmul@temp
  3995  0D2C                     l2105:
  3996  0D2C  0833               	movf	___flmul@temp,w
  3997  0D2D  00F9               	movwf	??___flmul
  3998  0D2E  01FA               	clrf	??___flmul+1
  3999  0D2F  01FB               	clrf	??___flmul+2
  4000  0D30  01FC               	clrf	??___flmul+3
  4001  0D31  087C               	movf	??___flmul+3,w
  4002  0D32  00AC               	movwf	___flmul@grs+3
  4003  0D33  087B               	movf	??___flmul+2,w
  4004  0D34  00AB               	movwf	___flmul@grs+2
  4005  0D35  087A               	movf	??___flmul+1,w
  4006  0D36  00AA               	movwf	___flmul@grs+1
  4007  0D37  0879               	movf	??___flmul,w
  4008  0D38  00A9               	movwf	___flmul@grs
  4009  0D39                     l2107:
  4010  0D39  0834               	movf	___flmul@temp+1,w
  4011  0D3A  00F9               	movwf	??___flmul
  4012  0D3B  01FA               	clrf	??___flmul+1
  4013  0D3C  01FB               	clrf	??___flmul+2
  4014  0D3D  01FC               	clrf	??___flmul+3
  4015  0D3E  087C               	movf	??___flmul+3,w
  4016  0D3F  00B2               	movwf	___flmul@prod+3
  4017  0D40  087B               	movf	??___flmul+2,w
  4018  0D41  00B1               	movwf	___flmul@prod+2
  4019  0D42  087A               	movf	??___flmul+1,w
  4020  0D43  00B0               	movwf	___flmul@prod+1
  4021  0D44  0879               	movf	??___flmul,w
  4022  0D45  00AF               	movwf	___flmul@prod
  4023  0D46  0821               	movf	___flmul@b+1,w
  4024  0D47  00F9               	movwf	??___flmul
  4025  0D48  0879               	movf	??___flmul,w
  4026  0D49  00F0               	movwf	__Umul8_16@multiplicand
  4027  0D4A  0825               	movf	___flmul@a+1,w
  4028  0D4B  158A  2157  158A   	fcall	__Umul8_16
  4029  0D4E  0871               	movf	?__Umul8_16+1,w
  4030  0D4F  1283               	bcf	3,5	;RP0=0, select bank0
  4031  0D50  1303               	bcf	3,6	;RP1=0, select bank0
  4032  0D51  00B4               	movwf	___flmul@temp+1
  4033  0D52  0870               	movf	?__Umul8_16,w
  4034  0D53  00B3               	movwf	___flmul@temp
  4035  0D54                     l2109:
  4036  0D54  0833               	movf	___flmul@temp,w
  4037  0D55  00F9               	movwf	??___flmul
  4038  0D56  01FA               	clrf	??___flmul+1
  4039  0D57  01FB               	clrf	??___flmul+2
  4040  0D58  01FC               	clrf	??___flmul+3
  4041  0D59  0879               	movf	??___flmul,w
  4042  0D5A  07A9               	addwf	___flmul@grs,f
  4043  0D5B  087A               	movf	??___flmul+1,w
  4044  0D5C  1103               	clrz
  4045  0D5D  1803               	skipnc
  4046  0D5E  3E01               	addlw	1
  4047  0D5F  1903               	skipnz
  4048  0D60  2D62               	goto	u2251
  4049  0D61  07AA               	addwf	___flmul@grs+1,f
  4050  0D62                     u2251:
  4051  0D62  087B               	movf	??___flmul+2,w
  4052  0D63  1103               	clrz
  4053  0D64  1803               	skipnc
  4054  0D65  3E01               	addlw	1
  4055  0D66  1903               	skipnz
  4056  0D67  2D69               	goto	u2252
  4057  0D68  07AB               	addwf	___flmul@grs+2,f
  4058  0D69                     u2252:
  4059  0D69  087C               	movf	??___flmul+3,w
  4060  0D6A  1103               	clrz
  4061  0D6B  1803               	skipnc
  4062  0D6C  3E01               	addlw	1
  4063  0D6D  1903               	skipnz
  4064  0D6E  2D70               	goto	u2253
  4065  0D6F  07AC               	addwf	___flmul@grs+3,f
  4066  0D70                     u2253:
  4067  0D70                     l2111:
  4068  0D70  0834               	movf	___flmul@temp+1,w
  4069  0D71  00F9               	movwf	??___flmul
  4070  0D72  01FA               	clrf	??___flmul+1
  4071  0D73  01FB               	clrf	??___flmul+2
  4072  0D74  01FC               	clrf	??___flmul+3
  4073  0D75  0879               	movf	??___flmul,w
  4074  0D76  07AF               	addwf	___flmul@prod,f
  4075  0D77  087A               	movf	??___flmul+1,w
  4076  0D78  1103               	clrz
  4077  0D79  1803               	skipnc
  4078  0D7A  3E01               	addlw	1
  4079  0D7B  1903               	skipnz
  4080  0D7C  2D7E               	goto	u2261
  4081  0D7D  07B0               	addwf	___flmul@prod+1,f
  4082  0D7E                     u2261:
  4083  0D7E  087B               	movf	??___flmul+2,w
  4084  0D7F  1103               	clrz
  4085  0D80  1803               	skipnc
  4086  0D81  3E01               	addlw	1
  4087  0D82  1903               	skipnz
  4088  0D83  2D85               	goto	u2262
  4089  0D84  07B1               	addwf	___flmul@prod+2,f
  4090  0D85                     u2262:
  4091  0D85  087C               	movf	??___flmul+3,w
  4092  0D86  1103               	clrz
  4093  0D87  1803               	skipnc
  4094  0D88  3E01               	addlw	1
  4095  0D89  1903               	skipnz
  4096  0D8A  2D8C               	goto	u2263
  4097  0D8B  07B2               	addwf	___flmul@prod+3,f
  4098  0D8C                     u2263:
  4099  0D8C  0822               	movf	___flmul@b+2,w
  4100  0D8D  00F9               	movwf	??___flmul
  4101  0D8E  0879               	movf	??___flmul,w
  4102  0D8F  00F0               	movwf	__Umul8_16@multiplicand
  4103  0D90  0824               	movf	___flmul@a,w
  4104  0D91  158A  2157  158A   	fcall	__Umul8_16
  4105  0D94  0871               	movf	?__Umul8_16+1,w
  4106  0D95  1283               	bcf	3,5	;RP0=0, select bank0
  4107  0D96  1303               	bcf	3,6	;RP1=0, select bank0
  4108  0D97  00B4               	movwf	___flmul@temp+1
  4109  0D98  0870               	movf	?__Umul8_16,w
  4110  0D99  00B3               	movwf	___flmul@temp
  4111  0D9A                     l2113:
  4112  0D9A  0833               	movf	___flmul@temp,w
  4113  0D9B  00F9               	movwf	??___flmul
  4114  0D9C  01FA               	clrf	??___flmul+1
  4115  0D9D  01FB               	clrf	??___flmul+2
  4116  0D9E  01FC               	clrf	??___flmul+3
  4117  0D9F  0879               	movf	??___flmul,w
  4118  0DA0  07A9               	addwf	___flmul@grs,f
  4119  0DA1  087A               	movf	??___flmul+1,w
  4120  0DA2  1103               	clrz
  4121  0DA3  1803               	skipnc
  4122  0DA4  3E01               	addlw	1
  4123  0DA5  1903               	skipnz
  4124  0DA6  2DA8               	goto	u2271
  4125  0DA7  07AA               	addwf	___flmul@grs+1,f
  4126  0DA8                     u2271:
  4127  0DA8  087B               	movf	??___flmul+2,w
  4128  0DA9  1103               	clrz
  4129  0DAA  1803               	skipnc
  4130  0DAB  3E01               	addlw	1
  4131  0DAC  1903               	skipnz
  4132  0DAD  2DAF               	goto	u2272
  4133  0DAE  07AB               	addwf	___flmul@grs+2,f
  4134  0DAF                     u2272:
  4135  0DAF  087C               	movf	??___flmul+3,w
  4136  0DB0  1103               	clrz
  4137  0DB1  1803               	skipnc
  4138  0DB2  3E01               	addlw	1
  4139  0DB3  1903               	skipnz
  4140  0DB4  2DB6               	goto	u2273
  4141  0DB5  07AC               	addwf	___flmul@grs+3,f
  4142  0DB6                     u2273:
  4143  0DB6                     l2115:
  4144  0DB6  0834               	movf	___flmul@temp+1,w
  4145  0DB7  00F9               	movwf	??___flmul
  4146  0DB8  01FA               	clrf	??___flmul+1
  4147  0DB9  01FB               	clrf	??___flmul+2
  4148  0DBA  01FC               	clrf	??___flmul+3
  4149  0DBB  0879               	movf	??___flmul,w
  4150  0DBC  07AF               	addwf	___flmul@prod,f
  4151  0DBD  087A               	movf	??___flmul+1,w
  4152  0DBE  1103               	clrz
  4153  0DBF  1803               	skipnc
  4154  0DC0  3E01               	addlw	1
  4155  0DC1  1903               	skipnz
  4156  0DC2  2DC4               	goto	u2281
  4157  0DC3  07B0               	addwf	___flmul@prod+1,f
  4158  0DC4                     u2281:
  4159  0DC4  087B               	movf	??___flmul+2,w
  4160  0DC5  1103               	clrz
  4161  0DC6  1803               	skipnc
  4162  0DC7  3E01               	addlw	1
  4163  0DC8  1903               	skipnz
  4164  0DC9  2DCB               	goto	u2282
  4165  0DCA  07B1               	addwf	___flmul@prod+2,f
  4166  0DCB                     u2282:
  4167  0DCB  087C               	movf	??___flmul+3,w
  4168  0DCC  1103               	clrz
  4169  0DCD  1803               	skipnc
  4170  0DCE  3E01               	addlw	1
  4171  0DCF  1903               	skipnz
  4172  0DD0  2DD2               	goto	u2283
  4173  0DD1  07B2               	addwf	___flmul@prod+3,f
  4174  0DD2                     u2283:
  4175  0DD2                     l2117:
  4176  0DD2  3008               	movlw	8
  4177  0DD3  00F9               	movwf	??___flmul
  4178  0DD4                     u2295:
  4179  0DD4  1003               	clrc
  4180  0DD5  0DA9               	rlf	___flmul@grs,f
  4181  0DD6  0DAA               	rlf	___flmul@grs+1,f
  4182  0DD7  0DAB               	rlf	___flmul@grs+2,f
  4183  0DD8  0DAC               	rlf	___flmul@grs+3,f
  4184  0DD9  0BF9               	decfsz	??___flmul,f
  4185  0DDA  2DD4               	goto	u2295
  4186  0DDB                     l2119:
  4187  0DDB  0821               	movf	___flmul@b+1,w
  4188  0DDC  00F9               	movwf	??___flmul
  4189  0DDD  0879               	movf	??___flmul,w
  4190  0DDE  00F0               	movwf	__Umul8_16@multiplicand
  4191  0DDF  0824               	movf	___flmul@a,w
  4192  0DE0  158A  2157  158A   	fcall	__Umul8_16
  4193  0DE3  0871               	movf	?__Umul8_16+1,w
  4194  0DE4  1283               	bcf	3,5	;RP0=0, select bank0
  4195  0DE5  1303               	bcf	3,6	;RP1=0, select bank0
  4196  0DE6  00B4               	movwf	___flmul@temp+1
  4197  0DE7  0870               	movf	?__Umul8_16,w
  4198  0DE8  00B3               	movwf	___flmul@temp
  4199  0DE9                     l2121:
  4200  0DE9  0833               	movf	___flmul@temp,w
  4201  0DEA  00F9               	movwf	??___flmul
  4202  0DEB  0834               	movf	___flmul@temp+1,w
  4203  0DEC  00FA               	movwf	??___flmul+1
  4204  0DED  01FB               	clrf	??___flmul+2
  4205  0DEE  01FC               	clrf	??___flmul+3
  4206  0DEF  0879               	movf	??___flmul,w
  4207  0DF0  07A9               	addwf	___flmul@grs,f
  4208  0DF1  087A               	movf	??___flmul+1,w
  4209  0DF2  1103               	clrz
  4210  0DF3  1803               	skipnc
  4211  0DF4  3E01               	addlw	1
  4212  0DF5  1903               	skipnz
  4213  0DF6  2DF8               	goto	u2301
  4214  0DF7  07AA               	addwf	___flmul@grs+1,f
  4215  0DF8                     u2301:
  4216  0DF8  087B               	movf	??___flmul+2,w
  4217  0DF9  1103               	clrz
  4218  0DFA  1803               	skipnc
  4219  0DFB  3E01               	addlw	1
  4220  0DFC  1903               	skipnz
  4221  0DFD  2DFF               	goto	u2302
  4222  0DFE  07AB               	addwf	___flmul@grs+2,f
  4223  0DFF                     u2302:
  4224  0DFF  087C               	movf	??___flmul+3,w
  4225  0E00  1103               	clrz
  4226  0E01  1803               	skipnc
  4227  0E02  3E01               	addlw	1
  4228  0E03  1903               	skipnz
  4229  0E04  2E06               	goto	u2303
  4230  0E05  07AC               	addwf	___flmul@grs+3,f
  4231  0E06                     u2303:
  4232  0E06                     l2123:
  4233  0E06  0820               	movf	___flmul@b,w
  4234  0E07  00F9               	movwf	??___flmul
  4235  0E08  0879               	movf	??___flmul,w
  4236  0E09  00F0               	movwf	__Umul8_16@multiplicand
  4237  0E0A  0825               	movf	___flmul@a+1,w
  4238  0E0B  158A  2157  158A   	fcall	__Umul8_16
  4239  0E0E  0871               	movf	?__Umul8_16+1,w
  4240  0E0F  1283               	bcf	3,5	;RP0=0, select bank0
  4241  0E10  1303               	bcf	3,6	;RP1=0, select bank0
  4242  0E11  00B4               	movwf	___flmul@temp+1
  4243  0E12  0870               	movf	?__Umul8_16,w
  4244  0E13  00B3               	movwf	___flmul@temp
  4245  0E14                     l2125:
  4246  0E14  0833               	movf	___flmul@temp,w
  4247  0E15  00F9               	movwf	??___flmul
  4248  0E16  0834               	movf	___flmul@temp+1,w
  4249  0E17  00FA               	movwf	??___flmul+1
  4250  0E18  01FB               	clrf	??___flmul+2
  4251  0E19  01FC               	clrf	??___flmul+3
  4252  0E1A  0879               	movf	??___flmul,w
  4253  0E1B  07A9               	addwf	___flmul@grs,f
  4254  0E1C  087A               	movf	??___flmul+1,w
  4255  0E1D  1103               	clrz
  4256  0E1E  1803               	skipnc
  4257  0E1F  3E01               	addlw	1
  4258  0E20  1903               	skipnz
  4259  0E21  2E23               	goto	u2311
  4260  0E22  07AA               	addwf	___flmul@grs+1,f
  4261  0E23                     u2311:
  4262  0E23  087B               	movf	??___flmul+2,w
  4263  0E24  1103               	clrz
  4264  0E25  1803               	skipnc
  4265  0E26  3E01               	addlw	1
  4266  0E27  1903               	skipnz
  4267  0E28  2E2A               	goto	u2312
  4268  0E29  07AB               	addwf	___flmul@grs+2,f
  4269  0E2A                     u2312:
  4270  0E2A  087C               	movf	??___flmul+3,w
  4271  0E2B  1103               	clrz
  4272  0E2C  1803               	skipnc
  4273  0E2D  3E01               	addlw	1
  4274  0E2E  1903               	skipnz
  4275  0E2F  2E31               	goto	u2313
  4276  0E30  07AC               	addwf	___flmul@grs+3,f
  4277  0E31                     u2313:
  4278  0E31                     l2127:
  4279  0E31  3008               	movlw	8
  4280  0E32  00F9               	movwf	??___flmul
  4281  0E33                     u2325:
  4282  0E33  1003               	clrc
  4283  0E34  0DA9               	rlf	___flmul@grs,f
  4284  0E35  0DAA               	rlf	___flmul@grs+1,f
  4285  0E36  0DAB               	rlf	___flmul@grs+2,f
  4286  0E37  0DAC               	rlf	___flmul@grs+3,f
  4287  0E38  0BF9               	decfsz	??___flmul,f
  4288  0E39  2E33               	goto	u2325
  4289  0E3A  0820               	movf	___flmul@b,w
  4290  0E3B  00F9               	movwf	??___flmul
  4291  0E3C  0879               	movf	??___flmul,w
  4292  0E3D  00F0               	movwf	__Umul8_16@multiplicand
  4293  0E3E  0824               	movf	___flmul@a,w
  4294  0E3F  158A  2157  158A   	fcall	__Umul8_16
  4295  0E42  0871               	movf	?__Umul8_16+1,w
  4296  0E43  1283               	bcf	3,5	;RP0=0, select bank0
  4297  0E44  1303               	bcf	3,6	;RP1=0, select bank0
  4298  0E45  00B4               	movwf	___flmul@temp+1
  4299  0E46  0870               	movf	?__Umul8_16,w
  4300  0E47  00B3               	movwf	___flmul@temp
  4301  0E48                     l2129:
  4302  0E48  0833               	movf	___flmul@temp,w
  4303  0E49  00F9               	movwf	??___flmul
  4304  0E4A  0834               	movf	___flmul@temp+1,w
  4305  0E4B  00FA               	movwf	??___flmul+1
  4306  0E4C  01FB               	clrf	??___flmul+2
  4307  0E4D  01FC               	clrf	??___flmul+3
  4308  0E4E  0879               	movf	??___flmul,w
  4309  0E4F  07A9               	addwf	___flmul@grs,f
  4310  0E50  087A               	movf	??___flmul+1,w
  4311  0E51  1103               	clrz
  4312  0E52  1803               	skipnc
  4313  0E53  3E01               	addlw	1
  4314  0E54  1903               	skipnz
  4315  0E55  2E57               	goto	u2331
  4316  0E56  07AA               	addwf	___flmul@grs+1,f
  4317  0E57                     u2331:
  4318  0E57  087B               	movf	??___flmul+2,w
  4319  0E58  1103               	clrz
  4320  0E59  1803               	skipnc
  4321  0E5A  3E01               	addlw	1
  4322  0E5B  1903               	skipnz
  4323  0E5C  2E5E               	goto	u2332
  4324  0E5D  07AB               	addwf	___flmul@grs+2,f
  4325  0E5E                     u2332:
  4326  0E5E  087C               	movf	??___flmul+3,w
  4327  0E5F  1103               	clrz
  4328  0E60  1803               	skipnc
  4329  0E61  3E01               	addlw	1
  4330  0E62  1903               	skipnz
  4331  0E63  2E65               	goto	u2333
  4332  0E64  07AC               	addwf	___flmul@grs+3,f
  4333  0E65                     u2333:
  4334  0E65                     l2131:
  4335  0E65  0821               	movf	___flmul@b+1,w
  4336  0E66  00F9               	movwf	??___flmul
  4337  0E67  0879               	movf	??___flmul,w
  4338  0E68  00F0               	movwf	__Umul8_16@multiplicand
  4339  0E69  0826               	movf	___flmul@a+2,w
  4340  0E6A  158A  2157  158A   	fcall	__Umul8_16
  4341  0E6D  0871               	movf	?__Umul8_16+1,w
  4342  0E6E  1283               	bcf	3,5	;RP0=0, select bank0
  4343  0E6F  1303               	bcf	3,6	;RP1=0, select bank0
  4344  0E70  00B4               	movwf	___flmul@temp+1
  4345  0E71  0870               	movf	?__Umul8_16,w
  4346  0E72  00B3               	movwf	___flmul@temp
  4347  0E73  0833               	movf	___flmul@temp,w
  4348  0E74  00F9               	movwf	??___flmul
  4349  0E75  0834               	movf	___flmul@temp+1,w
  4350  0E76  00FA               	movwf	??___flmul+1
  4351  0E77  01FB               	clrf	??___flmul+2
  4352  0E78  01FC               	clrf	??___flmul+3
  4353  0E79  0879               	movf	??___flmul,w
  4354  0E7A  07AF               	addwf	___flmul@prod,f
  4355  0E7B  087A               	movf	??___flmul+1,w
  4356  0E7C  1103               	clrz
  4357  0E7D  1803               	skipnc
  4358  0E7E  3E01               	addlw	1
  4359  0E7F  1903               	skipnz
  4360  0E80  2E82               	goto	u2341
  4361  0E81  07B0               	addwf	___flmul@prod+1,f
  4362  0E82                     u2341:
  4363  0E82  087B               	movf	??___flmul+2,w
  4364  0E83  1103               	clrz
  4365  0E84  1803               	skipnc
  4366  0E85  3E01               	addlw	1
  4367  0E86  1903               	skipnz
  4368  0E87  2E89               	goto	u2342
  4369  0E88  07B1               	addwf	___flmul@prod+2,f
  4370  0E89                     u2342:
  4371  0E89  087C               	movf	??___flmul+3,w
  4372  0E8A  1103               	clrz
  4373  0E8B  1803               	skipnc
  4374  0E8C  3E01               	addlw	1
  4375  0E8D  1903               	skipnz
  4376  0E8E  2E90               	goto	u2343
  4377  0E8F  07B2               	addwf	___flmul@prod+3,f
  4378  0E90                     u2343:
  4379  0E90                     l2133:
  4380  0E90  0822               	movf	___flmul@b+2,w
  4381  0E91  00F9               	movwf	??___flmul
  4382  0E92  0879               	movf	??___flmul,w
  4383  0E93  00F0               	movwf	__Umul8_16@multiplicand
  4384  0E94  0825               	movf	___flmul@a+1,w
  4385  0E95  158A  2157  158A   	fcall	__Umul8_16
  4386  0E98  0871               	movf	?__Umul8_16+1,w
  4387  0E99  1283               	bcf	3,5	;RP0=0, select bank0
  4388  0E9A  1303               	bcf	3,6	;RP1=0, select bank0
  4389  0E9B  00B4               	movwf	___flmul@temp+1
  4390  0E9C  0870               	movf	?__Umul8_16,w
  4391  0E9D  00B3               	movwf	___flmul@temp
  4392  0E9E                     l2135:
  4393  0E9E  0833               	movf	___flmul@temp,w
  4394  0E9F  00F9               	movwf	??___flmul
  4395  0EA0  0834               	movf	___flmul@temp+1,w
  4396  0EA1  00FA               	movwf	??___flmul+1
  4397  0EA2  01FB               	clrf	??___flmul+2
  4398  0EA3  01FC               	clrf	??___flmul+3
  4399  0EA4  0879               	movf	??___flmul,w
  4400  0EA5  07AF               	addwf	___flmul@prod,f
  4401  0EA6  087A               	movf	??___flmul+1,w
  4402  0EA7  1103               	clrz
  4403  0EA8  1803               	skipnc
  4404  0EA9  3E01               	addlw	1
  4405  0EAA  1903               	skipnz
  4406  0EAB  2EAD               	goto	u2351
  4407  0EAC  07B0               	addwf	___flmul@prod+1,f
  4408  0EAD                     u2351:
  4409  0EAD  087B               	movf	??___flmul+2,w
  4410  0EAE  1103               	clrz
  4411  0EAF  1803               	skipnc
  4412  0EB0  3E01               	addlw	1
  4413  0EB1  1903               	skipnz
  4414  0EB2  2EB4               	goto	u2352
  4415  0EB3  07B1               	addwf	___flmul@prod+2,f
  4416  0EB4                     u2352:
  4417  0EB4  087C               	movf	??___flmul+3,w
  4418  0EB5  1103               	clrz
  4419  0EB6  1803               	skipnc
  4420  0EB7  3E01               	addlw	1
  4421  0EB8  1903               	skipnz
  4422  0EB9  2EBB               	goto	u2353
  4423  0EBA  07B2               	addwf	___flmul@prod+3,f
  4424  0EBB                     u2353:
  4425  0EBB  0822               	movf	___flmul@b+2,w
  4426  0EBC  00F9               	movwf	??___flmul
  4427  0EBD  0879               	movf	??___flmul,w
  4428  0EBE  00F0               	movwf	__Umul8_16@multiplicand
  4429  0EBF  0826               	movf	___flmul@a+2,w
  4430  0EC0  158A  2157  158A   	fcall	__Umul8_16
  4431  0EC3  0871               	movf	?__Umul8_16+1,w
  4432  0EC4  1283               	bcf	3,5	;RP0=0, select bank0
  4433  0EC5  1303               	bcf	3,6	;RP1=0, select bank0
  4434  0EC6  00B4               	movwf	___flmul@temp+1
  4435  0EC7  0870               	movf	?__Umul8_16,w
  4436  0EC8  00B3               	movwf	___flmul@temp
  4437  0EC9                     l2137:
  4438  0EC9  0833               	movf	___flmul@temp,w
  4439  0ECA  00F9               	movwf	??___flmul
  4440  0ECB  0834               	movf	___flmul@temp+1,w
  4441  0ECC  00FA               	movwf	??___flmul+1
  4442  0ECD  01FB               	clrf	??___flmul+2
  4443  0ECE  01FC               	clrf	??___flmul+3
  4444  0ECF  3008               	movlw	8
  4445  0ED0                     u2365:
  4446  0ED0  1003               	clrc
  4447  0ED1  0DF9               	rlf	??___flmul,f
  4448  0ED2  0DFA               	rlf	??___flmul+1,f
  4449  0ED3  0DFB               	rlf	??___flmul+2,f
  4450  0ED4  0DFC               	rlf	??___flmul+3,f
  4451  0ED5                     u2360:
  4452  0ED5  3EFF               	addlw	-1
  4453  0ED6  1D03               	skipz
  4454  0ED7  2ED0               	goto	u2365
  4455  0ED8  0879               	movf	??___flmul,w
  4456  0ED9  07AF               	addwf	___flmul@prod,f
  4457  0EDA  087A               	movf	??___flmul+1,w
  4458  0EDB  1103               	clrz
  4459  0EDC  1803               	skipnc
  4460  0EDD  3E01               	addlw	1
  4461  0EDE  1903               	skipnz
  4462  0EDF  2EE1               	goto	u2371
  4463  0EE0  07B0               	addwf	___flmul@prod+1,f
  4464  0EE1                     u2371:
  4465  0EE1  087B               	movf	??___flmul+2,w
  4466  0EE2  1103               	clrz
  4467  0EE3  1803               	skipnc
  4468  0EE4  3E01               	addlw	1
  4469  0EE5  1903               	skipnz
  4470  0EE6  2EE8               	goto	u2372
  4471  0EE7  07B1               	addwf	___flmul@prod+2,f
  4472  0EE8                     u2372:
  4473  0EE8  087C               	movf	??___flmul+3,w
  4474  0EE9  1103               	clrz
  4475  0EEA  1803               	skipnc
  4476  0EEB  3E01               	addlw	1
  4477  0EEC  1903               	skipnz
  4478  0EED  2EEF               	goto	u2373
  4479  0EEE  07B2               	addwf	___flmul@prod+3,f
  4480  0EEF                     u2373:
  4481  0EEF                     l2139:
  4482  0EEF  0829               	movf	___flmul@grs,w
  4483  0EF0  00F9               	movwf	??___flmul
  4484  0EF1  082A               	movf	___flmul@grs+1,w
  4485  0EF2  00FA               	movwf	??___flmul+1
  4486  0EF3  082B               	movf	___flmul@grs+2,w
  4487  0EF4  00FB               	movwf	??___flmul+2
  4488  0EF5  082C               	movf	___flmul@grs+3,w
  4489  0EF6  00FC               	movwf	??___flmul+3
  4490  0EF7  3018               	movlw	24
  4491  0EF8                     u2385:
  4492  0EF8  1003               	clrc
  4493  0EF9  0CFC               	rrf	??___flmul+3,f
  4494  0EFA  0CFB               	rrf	??___flmul+2,f
  4495  0EFB  0CFA               	rrf	??___flmul+1,f
  4496  0EFC  0CF9               	rrf	??___flmul,f
  4497  0EFD                     u2380:
  4498  0EFD  3EFF               	addlw	-1
  4499  0EFE  1D03               	skipz
  4500  0EFF  2EF8               	goto	u2385
  4501  0F00  0879               	movf	??___flmul,w
  4502  0F01  07AF               	addwf	___flmul@prod,f
  4503  0F02  087A               	movf	??___flmul+1,w
  4504  0F03  1103               	clrz
  4505  0F04  1803               	skipnc
  4506  0F05  3E01               	addlw	1
  4507  0F06  1903               	skipnz
  4508  0F07  2F09               	goto	u2391
  4509  0F08  07B0               	addwf	___flmul@prod+1,f
  4510  0F09                     u2391:
  4511  0F09  087B               	movf	??___flmul+2,w
  4512  0F0A  1103               	clrz
  4513  0F0B  1803               	skipnc
  4514  0F0C  3E01               	addlw	1
  4515  0F0D  1903               	skipnz
  4516  0F0E  2F10               	goto	u2392
  4517  0F0F  07B1               	addwf	___flmul@prod+2,f
  4518  0F10                     u2392:
  4519  0F10  087C               	movf	??___flmul+3,w
  4520  0F11  1103               	clrz
  4521  0F12  1803               	skipnc
  4522  0F13  3E01               	addlw	1
  4523  0F14  1903               	skipnz
  4524  0F15  2F17               	goto	u2393
  4525  0F16  07B2               	addwf	___flmul@prod+3,f
  4526  0F17                     u2393:
  4527  0F17                     l2141:
  4528  0F17  3008               	movlw	8
  4529  0F18  00F9               	movwf	??___flmul
  4530  0F19                     u2405:
  4531  0F19  1003               	clrc
  4532  0F1A  0DA9               	rlf	___flmul@grs,f
  4533  0F1B  0DAA               	rlf	___flmul@grs+1,f
  4534  0F1C  0DAB               	rlf	___flmul@grs+2,f
  4535  0F1D  0DAC               	rlf	___flmul@grs+3,f
  4536  0F1E  0BF9               	decfsz	??___flmul,f
  4537  0F1F  2F19               	goto	u2405
  4538  0F20                     l2143:
  4539  0F20  082E               	movf	___flmul@bexp,w
  4540  0F21  072D               	addwf	___flmul@aexp,w
  4541  0F22  00F9               	movwf	??___flmul
  4542  0F23  01FA               	clrf	??___flmul+1
  4543  0F24  0DFA               	rlf	??___flmul+1,f
  4544  0F25  0879               	movf	??___flmul,w
  4545  0F26  3E82               	addlw	130
  4546  0F27  00B3               	movwf	___flmul@temp
  4547  0F28  087A               	movf	??___flmul+1,w
  4548  0F29  1803               	skipnc
  4549  0F2A  3E01               	addlw	1
  4550  0F2B  3EFF               	addlw	255
  4551  0F2C  00B4               	movwf	___flmul@temp+1
  4552  0F2D  2F4B               	goto	l2155
  4553  0F2E                     l2145:
  4554  0F2E  3001               	movlw	1
  4555  0F2F  00F9               	movwf	??___flmul
  4556  0F30                     u2415:
  4557  0F30  1003               	clrc
  4558  0F31  0DAF               	rlf	___flmul@prod,f
  4559  0F32  0DB0               	rlf	___flmul@prod+1,f
  4560  0F33  0DB1               	rlf	___flmul@prod+2,f
  4561  0F34  0DB2               	rlf	___flmul@prod+3,f
  4562  0F35  0BF9               	decfsz	??___flmul,f
  4563  0F36  2F30               	goto	u2415
  4564  0F37                     l2147:
  4565  0F37  1FAC               	btfss	___flmul@grs+3,7
  4566  0F38  2F3A               	goto	u2421
  4567  0F39  2F3B               	goto	u2420
  4568  0F3A                     u2421:
  4569  0F3A  2F3C               	goto	l2151
  4570  0F3B                     u2420:
  4571  0F3B                     l2149:
  4572  0F3B  142F               	bsf	___flmul@prod,0
  4573  0F3C                     l2151:
  4574  0F3C  3001               	movlw	1
  4575  0F3D  00F9               	movwf	??___flmul
  4576  0F3E                     u2435:
  4577  0F3E  1003               	clrc
  4578  0F3F  0DA9               	rlf	___flmul@grs,f
  4579  0F40  0DAA               	rlf	___flmul@grs+1,f
  4580  0F41  0DAB               	rlf	___flmul@grs+2,f
  4581  0F42  0DAC               	rlf	___flmul@grs+3,f
  4582  0F43  0BF9               	decfsz	??___flmul,f
  4583  0F44  2F3E               	goto	u2435
  4584  0F45                     l2153:
  4585  0F45  30FF               	movlw	255
  4586  0F46  07B3               	addwf	___flmul@temp,f
  4587  0F47  1803               	skipnc
  4588  0F48  0AB4               	incf	___flmul@temp+1,f
  4589  0F49  30FF               	movlw	255
  4590  0F4A  07B4               	addwf	___flmul@temp+1,f
  4591  0F4B                     l2155:
  4592  0F4B  1FB1               	btfss	___flmul@prod+2,7
  4593  0F4C  2F4E               	goto	u2441
  4594  0F4D  2F4F               	goto	u2440
  4595  0F4E                     u2441:
  4596  0F4E  2F2E               	goto	l2145
  4597  0F4F                     u2440:
  4598  0F4F                     l2157:
  4599  0F4F  01AD               	clrf	___flmul@aexp
  4600  0F50                     l2159:
  4601  0F50  1FAC               	btfss	___flmul@grs+3,7
  4602  0F51  2F53               	goto	u2451
  4603  0F52  2F54               	goto	u2450
  4604  0F53                     u2451:
  4605  0F53  2F70               	goto	l2167
  4606  0F54                     u2450:
  4607  0F54                     l2161:
  4608  0F54  30FF               	movlw	255
  4609  0F55  0529               	andwf	___flmul@grs,w
  4610  0F56  00F9               	movwf	??___flmul
  4611  0F57  30FF               	movlw	255
  4612  0F58  052A               	andwf	___flmul@grs+1,w
  4613  0F59  00FA               	movwf	??___flmul+1
  4614  0F5A  30FF               	movlw	255
  4615  0F5B  052B               	andwf	___flmul@grs+2,w
  4616  0F5C  00FB               	movwf	??___flmul+2
  4617  0F5D  307F               	movlw	127
  4618  0F5E  052C               	andwf	___flmul@grs+3,w
  4619  0F5F  00FC               	movwf	??___flmul+3
  4620  0F60  087C               	movf	??___flmul+3,w
  4621  0F61  047B               	iorwf	??___flmul+2,w
  4622  0F62  047A               	iorwf	??___flmul+1,w
  4623  0F63  0479               	iorwf	??___flmul,w
  4624  0F64  1903               	skipnz
  4625  0F65  2F67               	goto	u2461
  4626  0F66  2F68               	goto	u2460
  4627  0F67                     u2461:
  4628  0F67  2F6B               	goto	l658
  4629  0F68                     u2460:
  4630  0F68                     l2163:
  4631  0F68  01AD               	clrf	___flmul@aexp
  4632  0F69  0AAD               	incf	___flmul@aexp,f
  4633  0F6A  2F70               	goto	l2167
  4634  0F6B                     l658:
  4635  0F6B  1C2F               	btfss	___flmul@prod,0
  4636  0F6C  2F6E               	goto	u2471
  4637  0F6D  2F6F               	goto	u2470
  4638  0F6E                     u2471:
  4639  0F6E  2F70               	goto	l2167
  4640  0F6F                     u2470:
  4641  0F6F  2F68               	goto	l2163
  4642  0F70                     l2167:
  4643  0F70  082D               	movf	___flmul@aexp,w
  4644  0F71  1903               	btfsc	3,2
  4645  0F72  2F74               	goto	u2481
  4646  0F73  2F75               	goto	u2480
  4647  0F74                     u2481:
  4648  0F74  2FA6               	goto	l2177
  4649  0F75                     u2480:
  4650  0F75                     l2169:
  4651  0F75  3001               	movlw	1
  4652  0F76  07AF               	addwf	___flmul@prod,f
  4653  0F77  3000               	movlw	0
  4654  0F78  1803               	skipnc
  4655  0F79  3001               	movlw	1
  4656  0F7A  07B0               	addwf	___flmul@prod+1,f
  4657  0F7B  3000               	movlw	0
  4658  0F7C  1803               	skipnc
  4659  0F7D  3001               	movlw	1
  4660  0F7E  07B1               	addwf	___flmul@prod+2,f
  4661  0F7F  3000               	movlw	0
  4662  0F80  1803               	skipnc
  4663  0F81  3001               	movlw	1
  4664  0F82  07B2               	addwf	___flmul@prod+3,f
  4665  0F83                     l2171:
  4666  0F83  1C32               	btfss	___flmul@prod+3,0
  4667  0F84  2F86               	goto	u2491
  4668  0F85  2F87               	goto	u2490
  4669  0F86                     u2491:
  4670  0F86  2FA6               	goto	l2177
  4671  0F87                     u2490:
  4672  0F87                     l2173:
  4673  0F87  082F               	movf	___flmul@prod,w
  4674  0F88  00F9               	movwf	??___flmul
  4675  0F89  0830               	movf	___flmul@prod+1,w
  4676  0F8A  00FA               	movwf	??___flmul+1
  4677  0F8B  0831               	movf	___flmul@prod+2,w
  4678  0F8C  00FB               	movwf	??___flmul+2
  4679  0F8D  0832               	movf	___flmul@prod+3,w
  4680  0F8E  00FC               	movwf	??___flmul+3
  4681  0F8F  3001               	movlw	1
  4682  0F90  00FD               	movwf	??___flmul+4
  4683  0F91                     u2505:
  4684  0F91  0D7C               	rlf	??___flmul+3,w
  4685  0F92  0CFC               	rrf	??___flmul+3,f
  4686  0F93  0CFB               	rrf	??___flmul+2,f
  4687  0F94  0CFA               	rrf	??___flmul+1,f
  4688  0F95  0CF9               	rrf	??___flmul,f
  4689  0F96                     u2500:
  4690  0F96  0BFD               	decfsz	??___flmul+4,f
  4691  0F97  2F91               	goto	u2505
  4692  0F98  087C               	movf	??___flmul+3,w
  4693  0F99  00B2               	movwf	___flmul@prod+3
  4694  0F9A  087B               	movf	??___flmul+2,w
  4695  0F9B  00B1               	movwf	___flmul@prod+2
  4696  0F9C  087A               	movf	??___flmul+1,w
  4697  0F9D  00B0               	movwf	___flmul@prod+1
  4698  0F9E  0879               	movf	??___flmul,w
  4699  0F9F  00AF               	movwf	___flmul@prod
  4700  0FA0                     l2175:
  4701  0FA0  3001               	movlw	1
  4702  0FA1  07B3               	addwf	___flmul@temp,f
  4703  0FA2  1803               	skipnc
  4704  0FA3  0AB4               	incf	___flmul@temp+1,f
  4705  0FA4  3000               	movlw	0
  4706  0FA5  07B4               	addwf	___flmul@temp+1,f
  4707  0FA6                     l2177:
  4708  0FA6  0834               	movf	___flmul@temp+1,w
  4709  0FA7  3A80               	xorlw	128
  4710  0FA8  00FF               	movwf	btemp+1
  4711  0FA9  3080               	movlw	128
  4712  0FAA  027F               	subwf	btemp+1,w
  4713  0FAB  1D03               	skipz
  4714  0FAC  2FAF               	goto	u2515
  4715  0FAD  30FF               	movlw	255
  4716  0FAE  0233               	subwf	___flmul@temp,w
  4717  0FAF                     u2515:
  4718  0FAF  1C03               	skipc
  4719  0FB0  2FB2               	goto	u2511
  4720  0FB1  2FB3               	goto	u2510
  4721  0FB2                     u2511:
  4722  0FB2  2FBE               	goto	l2181
  4723  0FB3                     u2510:
  4724  0FB3                     l2179:
  4725  0FB3  307F               	movlw	127
  4726  0FB4  1283               	bcf	3,5	;RP0=0, select bank0
  4727  0FB5  1303               	bcf	3,6	;RP1=0, select bank0
  4728  0FB6  00B2               	movwf	___flmul@prod+3
  4729  0FB7  3080               	movlw	128
  4730  0FB8  00B1               	movwf	___flmul@prod+2
  4731  0FB9  3000               	movlw	0
  4732  0FBA  00B0               	movwf	___flmul@prod+1
  4733  0FBB  3000               	movlw	0
  4734  0FBC  00AF               	movwf	___flmul@prod
  4735  0FBD  2FF3               	goto	l664
  4736  0FBE                     l2181:
  4737  0FBE  1283               	bcf	3,5	;RP0=0, select bank0
  4738  0FBF  1303               	bcf	3,6	;RP1=0, select bank0
  4739  0FC0  0834               	movf	___flmul@temp+1,w
  4740  0FC1  3A80               	xorlw	128
  4741  0FC2  00FF               	movwf	btemp+1
  4742  0FC3  3080               	movlw	128
  4743  0FC4  027F               	subwf	btemp+1,w
  4744  0FC5  1D03               	skipz
  4745  0FC6  2FC9               	goto	u2525
  4746  0FC7  3001               	movlw	1
  4747  0FC8  0233               	subwf	___flmul@temp,w
  4748  0FC9                     u2525:
  4749  0FC9  1803               	skipnc
  4750  0FCA  2FCC               	goto	u2521
  4751  0FCB  2FCD               	goto	u2520
  4752  0FCC                     u2521:
  4753  0FCC  2FD9               	goto	l2187
  4754  0FCD                     u2520:
  4755  0FCD                     l2183:
  4756  0FCD  3000               	movlw	0
  4757  0FCE  1283               	bcf	3,5	;RP0=0, select bank0
  4758  0FCF  1303               	bcf	3,6	;RP1=0, select bank0
  4759  0FD0  00B2               	movwf	___flmul@prod+3
  4760  0FD1  3000               	movlw	0
  4761  0FD2  00B1               	movwf	___flmul@prod+2
  4762  0FD3  3000               	movlw	0
  4763  0FD4  00B0               	movwf	___flmul@prod+1
  4764  0FD5  3000               	movlw	0
  4765  0FD6  00AF               	movwf	___flmul@prod
  4766  0FD7                     l2185:
  4767  0FD7  01A8               	clrf	___flmul@sign
  4768  0FD8  2FF3               	goto	l664
  4769  0FD9                     l2187:
  4770  0FD9  1283               	bcf	3,5	;RP0=0, select bank0
  4771  0FDA  1303               	bcf	3,6	;RP1=0, select bank0
  4772  0FDB  0833               	movf	___flmul@temp,w
  4773  0FDC  00F9               	movwf	??___flmul
  4774  0FDD  0879               	movf	??___flmul,w
  4775  0FDE  00AE               	movwf	___flmul@bexp
  4776  0FDF  30FF               	movlw	255
  4777  0FE0  05AF               	andwf	___flmul@prod,f
  4778  0FE1  30FF               	movlw	255
  4779  0FE2  05B0               	andwf	___flmul@prod+1,f
  4780  0FE3  307F               	movlw	127
  4781  0FE4  05B1               	andwf	___flmul@prod+2,f
  4782  0FE5  3000               	movlw	0
  4783  0FE6  05B2               	andwf	___flmul@prod+3,f
  4784  0FE7                     l2189:
  4785  0FE7  1C2E               	btfss	___flmul@bexp,0
  4786  0FE8  2FEA               	goto	u2531
  4787  0FE9  2FEB               	goto	u2530
  4788  0FEA                     u2531:
  4789  0FEA  2FEC               	goto	l2193
  4790  0FEB                     u2530:
  4791  0FEB                     l2191:
  4792  0FEB  17B1               	bsf	___flmul@prod+2,7
  4793  0FEC                     l2193:
  4794  0FEC  082E               	movf	___flmul@bexp,w
  4795  0FED  00F9               	movwf	??___flmul
  4796  0FEE  1003               	clrc
  4797  0FEF  0C79               	rrf	??___flmul,w
  4798  0FF0  00FA               	movwf	??___flmul+1
  4799  0FF1  087A               	movf	??___flmul+1,w
  4800  0FF2  00B2               	movwf	___flmul@prod+3
  4801  0FF3                     l664:
  4802  0FF3  0828               	movf	___flmul@sign,w
  4803  0FF4  00F9               	movwf	??___flmul
  4804  0FF5  0879               	movf	??___flmul,w
  4805  0FF6  04B2               	iorwf	___flmul@prod+3,f
  4806  0FF7                     l2195:
  4807  0FF7  0832               	movf	___flmul@prod+3,w
  4808  0FF8  00A3               	movwf	?___flmul+3
  4809  0FF9  0831               	movf	___flmul@prod+2,w
  4810  0FFA  00A2               	movwf	?___flmul+2
  4811  0FFB  0830               	movf	___flmul@prod+1,w
  4812  0FFC  00A1               	movwf	?___flmul+1
  4813  0FFD  082F               	movf	___flmul@prod,w
  4814  0FFE  00A0               	movwf	?___flmul
  4815  0FFF                     l652:
  4816  0FFF  0008               	return
  4817  1000                     __end_of___flmul:
  4818                           
  4819                           	psect	text11
  4820  0957                     __ptext11:	
  4821 ;; *************** function __Umul8_16 *****************
  4822 ;; Defined at:
  4823 ;;		line 4 in file "C:\Program Files\Microchip\xc8\v2.30\pic\sources\c90\common\Umul8_16.c"
  4824 ;; Parameters:    Size  Location     Type
  4825 ;;  multiplier      1    wreg     unsigned char 
  4826 ;;  multiplicand    1    0[COMMON] unsigned char 
  4827 ;; Auto vars:     Size  Location     Type
  4828 ;;  multiplier      1    8[COMMON] unsigned char 
  4829 ;;  word_mpld       2    6[COMMON] unsigned int 
  4830 ;;  product         2    4[COMMON] unsigned int 
  4831 ;; Return value:  Size  Location     Type
  4832 ;;                  2    0[COMMON] unsigned int 
  4833 ;; Registers used:
  4834 ;;		wreg, status,2, status,0
  4835 ;; Tracked objects:
  4836 ;;		On entry : 0/0
  4837 ;;		On exit  : 0/0
  4838 ;;		Unchanged: 0/0
  4839 ;; Data sizes:     COMMON   BANK0   BANK1   BANK2
  4840 ;;      Params:         2       0       0       0
  4841 ;;      Locals:         5       0       0       0
  4842 ;;      Temps:          2       0       0       0
  4843 ;;      Totals:         9       0       0       0
  4844 ;;Total ram usage:        9 bytes
  4845 ;; Hardware stack levels used:    1
  4846 ;; This function calls:
  4847 ;;		Nothing
  4848 ;; This function is called by:
  4849 ;;		___flmul
  4850 ;; This function uses a non-reentrant model
  4851 ;;
  4852                           
  4853                           
  4854                           ;psect for function __Umul8_16
  4855  0957                     __Umul8_16:
  4856                           
  4857                           ;incstack = 0
  4858                           ; Regs used in __Umul8_16: [wreg+status,2+status,0]
  4859                           ;__Umul8_16@multiplier stored from wreg
  4860  0957  00F8               	movwf	__Umul8_16@multiplier
  4861  0958                     l1717:
  4862  0958  01F4               	clrf	__Umul8_16@product
  4863  0959  01F5               	clrf	__Umul8_16@product+1
  4864  095A                     l1719:
  4865  095A  0870               	movf	__Umul8_16@multiplicand,w
  4866  095B  00F2               	movwf	??__Umul8_16
  4867  095C  01F3               	clrf	??__Umul8_16+1
  4868  095D  0872               	movf	??__Umul8_16,w
  4869  095E  00F6               	movwf	__Umul8_16@word_mpld
  4870  095F  0873               	movf	??__Umul8_16+1,w
  4871  0960  00F7               	movwf	__Umul8_16@word_mpld+1
  4872  0961                     l1721:
  4873  0961  1C78               	btfss	__Umul8_16@multiplier,0
  4874  0962  2964               	goto	u1551
  4875  0963  2965               	goto	u1550
  4876  0964                     u1551:
  4877  0964  296B               	goto	l671
  4878  0965                     u1550:
  4879  0965                     l1723:
  4880  0965  0876               	movf	__Umul8_16@word_mpld,w
  4881  0966  07F4               	addwf	__Umul8_16@product,f
  4882  0967  1803               	skipnc
  4883  0968  0AF5               	incf	__Umul8_16@product+1,f
  4884  0969  0877               	movf	__Umul8_16@word_mpld+1,w
  4885  096A  07F5               	addwf	__Umul8_16@product+1,f
  4886  096B                     l671:
  4887  096B  3001               	movlw	1
  4888  096C                     u1565:
  4889  096C  1003               	clrc
  4890  096D  0DF6               	rlf	__Umul8_16@word_mpld,f
  4891  096E  0DF7               	rlf	__Umul8_16@word_mpld+1,f
  4892  096F  3EFF               	addlw	-1
  4893  0970  1D03               	skipz
  4894  0971  296C               	goto	u1565
  4895  0972  1003               	clrc
  4896  0973  0CF8               	rrf	__Umul8_16@multiplier,f
  4897  0974                     l1725:
  4898  0974  0878               	movf	__Umul8_16@multiplier,w
  4899  0975  1D03               	btfss	3,2
  4900  0976  2978               	goto	u1571
  4901  0977  2979               	goto	u1570
  4902  0978                     u1571:
  4903  0978  2961               	goto	l1721
  4904  0979                     u1570:
  4905  0979                     l1727:
  4906  0979  0875               	movf	__Umul8_16@product+1,w
  4907  097A  00F1               	movwf	?__Umul8_16+1
  4908  097B  0874               	movf	__Umul8_16@product,w
  4909  097C  00F0               	movwf	?__Umul8_16
  4910  097D                     l673:
  4911  097D  0008               	return
  4912  097E                     __end_of__Umul8_16:
  4913                           
  4914                           	psect	text12
  4915  0AC4                     __ptext12:	
  4916 ;; *************** function ___flge *****************
  4917 ;; Defined at:
  4918 ;;		line 4 in file "C:\Program Files\Microchip\xc8\v2.30\pic\sources\c90\common\flge.c"
  4919 ;; Parameters:    Size  Location     Type
  4920 ;;  ff1             4    0[COMMON] unsigned int 
  4921 ;;  ff2             4    4[COMMON] unsigned int 
  4922 ;; Auto vars:     Size  Location     Type
  4923 ;;		None
  4924 ;; Return value:  Size  Location     Type
  4925 ;;		None               void
  4926 ;; Registers used:
  4927 ;;		wreg, status,2, status,0
  4928 ;; Tracked objects:
  4929 ;;		On entry : 0/0
  4930 ;;		On exit  : 0/0
  4931 ;;		Unchanged: 0/0
  4932 ;; Data sizes:     COMMON   BANK0   BANK1   BANK2
  4933 ;;      Params:         8       0       0       0
  4934 ;;      Locals:         0       0       0       0
  4935 ;;      Temps:          4       0       0       0
  4936 ;;      Totals:        12       0       0       0
  4937 ;;Total ram usage:       12 bytes
  4938 ;; Hardware stack levels used:    1
  4939 ;; This function calls:
  4940 ;;		Nothing
  4941 ;; This function is called by:
  4942 ;;		_main
  4943 ;; This function uses a non-reentrant model
  4944 ;;
  4945                           
  4946                           
  4947                           ;psect for function ___flge
  4948  0AC4                     ___flge:
  4949  0AC4                     l1861:	
  4950                           ;incstack = 0
  4951                           ; Regs used in ___flge: [wreg+status,2+status,0]
  4952                           
  4953  0AC4  3000               	movlw	0
  4954  0AC5  0570               	andwf	___flge@ff1,w
  4955  0AC6  00F8               	movwf	??___flge
  4956  0AC7  3000               	movlw	0
  4957  0AC8  0571               	andwf	___flge@ff1+1,w
  4958  0AC9  00F9               	movwf	??___flge+1
  4959  0ACA  3080               	movlw	128
  4960  0ACB  0572               	andwf	___flge@ff1+2,w
  4961  0ACC  00FA               	movwf	??___flge+2
  4962  0ACD  307F               	movlw	127
  4963  0ACE  0573               	andwf	___flge@ff1+3,w
  4964  0ACF  00FB               	movwf	??___flge+3
  4965  0AD0  087B               	movf	??___flge+3,w
  4966  0AD1  047A               	iorwf	??___flge+2,w
  4967  0AD2  0479               	iorwf	??___flge+1,w
  4968  0AD3  0478               	iorwf	??___flge,w
  4969  0AD4  1D03               	skipz
  4970  0AD5  2AD7               	goto	u1711
  4971  0AD6  2AD8               	goto	u1710
  4972  0AD7                     u1711:
  4973  0AD7  2AE0               	goto	l437
  4974  0AD8                     u1710:
  4975  0AD8                     l1863:
  4976  0AD8  3000               	movlw	0
  4977  0AD9  00F3               	movwf	___flge@ff1+3
  4978  0ADA  3000               	movlw	0
  4979  0ADB  00F2               	movwf	___flge@ff1+2
  4980  0ADC  3000               	movlw	0
  4981  0ADD  00F1               	movwf	___flge@ff1+1
  4982  0ADE  3000               	movlw	0
  4983  0ADF  00F0               	movwf	___flge@ff1
  4984  0AE0                     l437:
  4985  0AE0  3000               	movlw	0
  4986  0AE1  0574               	andwf	___flge@ff2,w
  4987  0AE2  00F8               	movwf	??___flge
  4988  0AE3  3000               	movlw	0
  4989  0AE4  0575               	andwf	___flge@ff2+1,w
  4990  0AE5  00F9               	movwf	??___flge+1
  4991  0AE6  3080               	movlw	128
  4992  0AE7  0576               	andwf	___flge@ff2+2,w
  4993  0AE8  00FA               	movwf	??___flge+2
  4994  0AE9  307F               	movlw	127
  4995  0AEA  0577               	andwf	___flge@ff2+3,w
  4996  0AEB  00FB               	movwf	??___flge+3
  4997  0AEC  087B               	movf	??___flge+3,w
  4998  0AED  047A               	iorwf	??___flge+2,w
  4999  0AEE  0479               	iorwf	??___flge+1,w
  5000  0AEF  0478               	iorwf	??___flge,w
  5001  0AF0  1D03               	skipz
  5002  0AF1  2AF3               	goto	u1721
  5003  0AF2  2AF4               	goto	u1720
  5004  0AF3                     u1721:
  5005  0AF3  2AFC               	goto	l1867
  5006  0AF4                     u1720:
  5007  0AF4                     l1865:
  5008  0AF4  3000               	movlw	0
  5009  0AF5  00F7               	movwf	___flge@ff2+3
  5010  0AF6  3000               	movlw	0
  5011  0AF7  00F6               	movwf	___flge@ff2+2
  5012  0AF8  3000               	movlw	0
  5013  0AF9  00F5               	movwf	___flge@ff2+1
  5014  0AFA  3000               	movlw	0
  5015  0AFB  00F4               	movwf	___flge@ff2
  5016  0AFC                     l1867:
  5017  0AFC  1FF3               	btfss	___flge@ff1+3,7
  5018  0AFD  2AFF               	goto	u1731
  5019  0AFE  2B00               	goto	u1730
  5020  0AFF                     u1731:
  5021  0AFF  2B24               	goto	l1871
  5022  0B00                     u1730:
  5023  0B00                     l1869:
  5024  0B00  3000               	movlw	0
  5025  0B01  00F8               	movwf	??___flge
  5026  0B02  3000               	movlw	0
  5027  0B03  00F9               	movwf	??___flge+1
  5028  0B04  3000               	movlw	0
  5029  0B05  00FA               	movwf	??___flge+2
  5030  0B06  3080               	movlw	128
  5031  0B07  00FB               	movwf	??___flge+3
  5032  0B08  0870               	movf	___flge@ff1,w
  5033  0B09  02F8               	subwf	??___flge,f
  5034  0B0A  0871               	movf	___flge@ff1+1,w
  5035  0B0B  1C03               	skipc
  5036  0B0C  0F71               	incfsz	___flge@ff1+1,w
  5037  0B0D  2B0F               	goto	u1741
  5038  0B0E  2B10               	goto	u1742
  5039  0B0F                     u1741:
  5040  0B0F  02F9               	subwf	??___flge+1,f
  5041  0B10                     u1742:
  5042  0B10  0872               	movf	___flge@ff1+2,w
  5043  0B11  1C03               	skipc
  5044  0B12  0F72               	incfsz	___flge@ff1+2,w
  5045  0B13  2B15               	goto	u1743
  5046  0B14  2B16               	goto	u1744
  5047  0B15                     u1743:
  5048  0B15  02FA               	subwf	??___flge+2,f
  5049  0B16                     u1744:
  5050  0B16  0873               	movf	___flge@ff1+3,w
  5051  0B17  1C03               	skipc
  5052  0B18  0F73               	incfsz	___flge@ff1+3,w
  5053  0B19  2B1B               	goto	u1745
  5054  0B1A  2B1C               	goto	u1746
  5055  0B1B                     u1745:
  5056  0B1B  02FB               	subwf	??___flge+3,f
  5057  0B1C                     u1746:
  5058  0B1C  087B               	movf	??___flge+3,w
  5059  0B1D  00F3               	movwf	___flge@ff1+3
  5060  0B1E  087A               	movf	??___flge+2,w
  5061  0B1F  00F2               	movwf	___flge@ff1+2
  5062  0B20  0879               	movf	??___flge+1,w
  5063  0B21  00F1               	movwf	___flge@ff1+1
  5064  0B22  0878               	movf	??___flge,w
  5065  0B23  00F0               	movwf	___flge@ff1
  5066  0B24                     l1871:
  5067  0B24  1FF7               	btfss	___flge@ff2+3,7
  5068  0B25  2B27               	goto	u1751
  5069  0B26  2B28               	goto	u1750
  5070  0B27                     u1751:
  5071  0B27  2B4C               	goto	l440
  5072  0B28                     u1750:
  5073  0B28                     l1873:
  5074  0B28  3000               	movlw	0
  5075  0B29  00F8               	movwf	??___flge
  5076  0B2A  3000               	movlw	0
  5077  0B2B  00F9               	movwf	??___flge+1
  5078  0B2C  3000               	movlw	0
  5079  0B2D  00FA               	movwf	??___flge+2
  5080  0B2E  3080               	movlw	128
  5081  0B2F  00FB               	movwf	??___flge+3
  5082  0B30  0874               	movf	___flge@ff2,w
  5083  0B31  02F8               	subwf	??___flge,f
  5084  0B32  0875               	movf	___flge@ff2+1,w
  5085  0B33  1C03               	skipc
  5086  0B34  0F75               	incfsz	___flge@ff2+1,w
  5087  0B35  2B37               	goto	u1761
  5088  0B36  2B38               	goto	u1762
  5089  0B37                     u1761:
  5090  0B37  02F9               	subwf	??___flge+1,f
  5091  0B38                     u1762:
  5092  0B38  0876               	movf	___flge@ff2+2,w
  5093  0B39  1C03               	skipc
  5094  0B3A  0F76               	incfsz	___flge@ff2+2,w
  5095  0B3B  2B3D               	goto	u1763
  5096  0B3C  2B3E               	goto	u1764
  5097  0B3D                     u1763:
  5098  0B3D  02FA               	subwf	??___flge+2,f
  5099  0B3E                     u1764:
  5100  0B3E  0877               	movf	___flge@ff2+3,w
  5101  0B3F  1C03               	skipc
  5102  0B40  0F77               	incfsz	___flge@ff2+3,w
  5103  0B41  2B43               	goto	u1765
  5104  0B42  2B44               	goto	u1766
  5105  0B43                     u1765:
  5106  0B43  02FB               	subwf	??___flge+3,f
  5107  0B44                     u1766:
  5108  0B44  087B               	movf	??___flge+3,w
  5109  0B45  00F7               	movwf	___flge@ff2+3
  5110  0B46  087A               	movf	??___flge+2,w
  5111  0B47  00F6               	movwf	___flge@ff2+2
  5112  0B48  0879               	movf	??___flge+1,w
  5113  0B49  00F5               	movwf	___flge@ff2+1
  5114  0B4A  0878               	movf	??___flge,w
  5115  0B4B  00F4               	movwf	___flge@ff2
  5116  0B4C                     l440:
  5117  0B4C  3080               	movlw	128
  5118  0B4D  06F3               	xorwf	___flge@ff1+3,f
  5119  0B4E  3080               	movlw	128
  5120  0B4F  06F7               	xorwf	___flge@ff2+3,f
  5121  0B50  0877               	movf	___flge@ff2+3,w
  5122  0B51  0273               	subwf	___flge@ff1+3,w
  5123  0B52  1D03               	skipz
  5124  0B53  2B5E               	goto	u1775
  5125  0B54  0876               	movf	___flge@ff2+2,w
  5126  0B55  0272               	subwf	___flge@ff1+2,w
  5127  0B56  1D03               	skipz
  5128  0B57  2B5E               	goto	u1775
  5129  0B58  0875               	movf	___flge@ff2+1,w
  5130  0B59  0271               	subwf	___flge@ff1+1,w
  5131  0B5A  1D03               	skipz
  5132  0B5B  2B5E               	goto	u1775
  5133  0B5C  0874               	movf	___flge@ff2,w
  5134  0B5D  0270               	subwf	___flge@ff1,w
  5135  0B5E                     u1775:
  5136  0B5E  1803               	skipnc
  5137  0B5F  2B61               	goto	u1771
  5138  0B60  2B62               	goto	u1770
  5139  0B61                     u1771:
  5140  0B61  2B64               	goto	l1877
  5141  0B62                     u1770:
  5142  0B62                     l1875:
  5143  0B62  1003               	clrc
  5144  0B63  2B65               	goto	l441
  5145  0B64                     l1877:
  5146  0B64  1403               	setc
  5147  0B65                     l441:
  5148  0B65  0008               	return
  5149  0B66                     __end_of___flge:
  5150                           
  5151                           	psect	text13
  5152  09FC                     __ptext13:	
  5153 ;; *************** function ___fleq *****************
  5154 ;; Defined at:
  5155 ;;		line 4 in file "C:\Program Files\Microchip\xc8\v2.30\pic\sources\c90\common\fleq.c"
  5156 ;; Parameters:    Size  Location     Type
  5157 ;;  ff1             4    0[COMMON] unsigned int 
  5158 ;;  ff2             4    4[COMMON] unsigned int 
  5159 ;; Auto vars:     Size  Location     Type
  5160 ;;		None
  5161 ;; Return value:  Size  Location     Type
  5162 ;;		None               void
  5163 ;; Registers used:
  5164 ;;		wreg, status,2, status,0
  5165 ;; Tracked objects:
  5166 ;;		On entry : 0/0
  5167 ;;		On exit  : 0/0
  5168 ;;		Unchanged: 0/0
  5169 ;; Data sizes:     COMMON   BANK0   BANK1   BANK2
  5170 ;;      Params:         8       0       0       0
  5171 ;;      Locals:         0       0       0       0
  5172 ;;      Temps:          4       0       0       0
  5173 ;;      Totals:        12       0       0       0
  5174 ;;Total ram usage:       12 bytes
  5175 ;; Hardware stack levels used:    1
  5176 ;; This function calls:
  5177 ;;		Nothing
  5178 ;; This function is called by:
  5179 ;;		_main
  5180 ;; This function uses a non-reentrant model
  5181 ;;
  5182                           
  5183                           
  5184                           ;psect for function ___fleq
  5185  09FC                     ___fleq:
  5186  09FC                     l1849:	
  5187                           ;incstack = 0
  5188                           ; Regs used in ___fleq: [wreg+status,2+status,0]
  5189                           
  5190  09FC  3000               	movlw	0
  5191  09FD  0570               	andwf	___fleq@ff1,w
  5192  09FE  00F8               	movwf	??___fleq
  5193  09FF  3000               	movlw	0
  5194  0A00  0571               	andwf	___fleq@ff1+1,w
  5195  0A01  00F9               	movwf	??___fleq+1
  5196  0A02  3080               	movlw	128
  5197  0A03  0572               	andwf	___fleq@ff1+2,w
  5198  0A04  00FA               	movwf	??___fleq+2
  5199  0A05  307F               	movlw	127
  5200  0A06  0573               	andwf	___fleq@ff1+3,w
  5201  0A07  00FB               	movwf	??___fleq+3
  5202  0A08  087B               	movf	??___fleq+3,w
  5203  0A09  047A               	iorwf	??___fleq+2,w
  5204  0A0A  0479               	iorwf	??___fleq+1,w
  5205  0A0B  0478               	iorwf	??___fleq,w
  5206  0A0C  1D03               	skipz
  5207  0A0D  2A0F               	goto	u1681
  5208  0A0E  2A10               	goto	u1680
  5209  0A0F                     u1681:
  5210  0A0F  2A18               	goto	l432
  5211  0A10                     u1680:
  5212  0A10                     l1851:
  5213  0A10  3000               	movlw	0
  5214  0A11  00F3               	movwf	___fleq@ff1+3
  5215  0A12  3000               	movlw	0
  5216  0A13  00F2               	movwf	___fleq@ff1+2
  5217  0A14  3000               	movlw	0
  5218  0A15  00F1               	movwf	___fleq@ff1+1
  5219  0A16  3000               	movlw	0
  5220  0A17  00F0               	movwf	___fleq@ff1
  5221  0A18                     l432:
  5222  0A18  3000               	movlw	0
  5223  0A19  0574               	andwf	___fleq@ff2,w
  5224  0A1A  00F8               	movwf	??___fleq
  5225  0A1B  3000               	movlw	0
  5226  0A1C  0575               	andwf	___fleq@ff2+1,w
  5227  0A1D  00F9               	movwf	??___fleq+1
  5228  0A1E  3080               	movlw	128
  5229  0A1F  0576               	andwf	___fleq@ff2+2,w
  5230  0A20  00FA               	movwf	??___fleq+2
  5231  0A21  307F               	movlw	127
  5232  0A22  0577               	andwf	___fleq@ff2+3,w
  5233  0A23  00FB               	movwf	??___fleq+3
  5234  0A24  087B               	movf	??___fleq+3,w
  5235  0A25  047A               	iorwf	??___fleq+2,w
  5236  0A26  0479               	iorwf	??___fleq+1,w
  5237  0A27  0478               	iorwf	??___fleq,w
  5238  0A28  1D03               	skipz
  5239  0A29  2A2B               	goto	u1691
  5240  0A2A  2A2C               	goto	u1690
  5241  0A2B                     u1691:
  5242  0A2B  2A34               	goto	l433
  5243  0A2C                     u1690:
  5244  0A2C                     l1853:
  5245  0A2C  3000               	movlw	0
  5246  0A2D  00F7               	movwf	___fleq@ff2+3
  5247  0A2E  3000               	movlw	0
  5248  0A2F  00F6               	movwf	___fleq@ff2+2
  5249  0A30  3000               	movlw	0
  5250  0A31  00F5               	movwf	___fleq@ff2+1
  5251  0A32  3000               	movlw	0
  5252  0A33  00F4               	movwf	___fleq@ff2
  5253  0A34                     l433:
  5254  0A34  0877               	movf	___fleq@ff2+3,w
  5255  0A35  0673               	xorwf	___fleq@ff1+3,w
  5256  0A36  1D03               	skipz
  5257  0A37  2A42               	goto	u1705
  5258  0A38  0876               	movf	___fleq@ff2+2,w
  5259  0A39  0672               	xorwf	___fleq@ff1+2,w
  5260  0A3A  1D03               	skipz
  5261  0A3B  2A42               	goto	u1705
  5262  0A3C  0875               	movf	___fleq@ff2+1,w
  5263  0A3D  0671               	xorwf	___fleq@ff1+1,w
  5264  0A3E  1D03               	skipz
  5265  0A3F  2A42               	goto	u1705
  5266  0A40  0874               	movf	___fleq@ff2,w
  5267  0A41  0670               	xorwf	___fleq@ff1,w
  5268  0A42                     u1705:
  5269  0A42  1903               	skipnz
  5270  0A43  2A45               	goto	u1701
  5271  0A44  2A46               	goto	u1700
  5272  0A45                     u1701:
  5273  0A45  2A48               	goto	l1857
  5274  0A46                     u1700:
  5275  0A46                     l1855:
  5276  0A46  1003               	clrc
  5277  0A47  2A49               	goto	l434
  5278  0A48                     l1857:
  5279  0A48  1403               	setc
  5280  0A49                     l434:
  5281  0A49  0008               	return
  5282  0A4A                     __end_of___fleq:
  5283                           
  5284                           	psect	text14
  5285  011D                     __ptext14:	
  5286 ;; *************** function ___fldiv *****************
  5287 ;; Defined at:
  5288 ;;		line 8 in file "C:\Program Files\Microchip\xc8\v2.30\pic\sources\c90\common\sprcdiv.c"
  5289 ;; Parameters:    Size  Location     Type
  5290 ;;  a               4   21[BANK0 ] unsigned int 
  5291 ;;  b               4   25[BANK0 ] unsigned int 
  5292 ;; Auto vars:     Size  Location     Type
  5293 ;;  grs             4   41[BANK0 ] unsigned long 
  5294 ;;  rem             4   34[BANK0 ] unsigned long 
  5295 ;;  new_exp         2   39[BANK0 ] int 
  5296 ;;  aexp            1   46[BANK0 ] unsigned char 
  5297 ;;  bexp            1   45[BANK0 ] unsigned char 
  5298 ;;  sign            1   38[BANK0 ] unsigned char 
  5299 ;; Return value:  Size  Location     Type
  5300 ;;                  4   21[BANK0 ] unsigned char 
  5301 ;; Registers used:
  5302 ;;		wreg, status,2, status,0, btemp+1
  5303 ;; Tracked objects:
  5304 ;;		On entry : 0/0
  5305 ;;		On exit  : 0/0
  5306 ;;		Unchanged: 0/0
  5307 ;; Data sizes:     COMMON   BANK0   BANK1   BANK2
  5308 ;;      Params:         0       8       0       0
  5309 ;;      Locals:         0      13       0       0
  5310 ;;      Temps:          0       5       0       0
  5311 ;;      Totals:         0      26       0       0
  5312 ;;Total ram usage:       26 bytes
  5313 ;; Hardware stack levels used:    1
  5314 ;; This function calls:
  5315 ;;		Nothing
  5316 ;; This function is called by:
  5317 ;;		_main
  5318 ;; This function uses a non-reentrant model
  5319 ;;
  5320                           
  5321                           
  5322                           ;psect for function ___fldiv
  5323  011D                     ___fldiv:
  5324  011D                     l1917:	
  5325                           ;incstack = 0
  5326                           ; Regs used in ___fldiv: [wreg+status,2+status,0+btemp+1]
  5327                           
  5328  011D  1283               	bcf	3,5	;RP0=0, select bank0
  5329  011E  1303               	bcf	3,6	;RP1=0, select bank0
  5330  011F  083C               	movf	___fldiv@b+3,w
  5331  0120  3980               	andlw	128
  5332  0121  00BD               	movwf	??___fldiv
  5333  0122  083D               	movf	??___fldiv,w
  5334  0123  00C6               	movwf	___fldiv@sign
  5335  0124                     l1919:
  5336  0124  083C               	movf	___fldiv@b+3,w
  5337  0125  00BD               	movwf	??___fldiv
  5338  0126  073D               	addwf	??___fldiv,w
  5339  0127  00BE               	movwf	??___fldiv+1
  5340  0128  083E               	movf	??___fldiv+1,w
  5341  0129  00CD               	movwf	___fldiv@bexp
  5342  012A                     l1921:
  5343  012A  1FBB               	btfss	___fldiv@b+2,7
  5344  012B  292D               	goto	u1881
  5345  012C  292E               	goto	u1880
  5346  012D                     u1881:
  5347  012D  292F               	goto	l1925
  5348  012E                     u1880:
  5349  012E                     l1923:
  5350  012E  144D               	bsf	___fldiv@bexp,0
  5351  012F                     l1925:
  5352  012F  084D               	movf	___fldiv@bexp,w
  5353  0130  1903               	btfsc	3,2
  5354  0131  2933               	goto	u1891
  5355  0132  2934               	goto	u1890
  5356  0133                     u1891:
  5357  0133  2944               	goto	l1935
  5358  0134                     u1890:
  5359  0134                     l1927:
  5360  0134  0A4D               	incf	___fldiv@bexp,w
  5361  0135  1D03               	btfss	3,2
  5362  0136  2938               	goto	u1901
  5363  0137  2939               	goto	u1900
  5364  0138                     u1901:
  5365  0138  2941               	goto	l1931
  5366  0139                     u1900:
  5367  0139                     l1929:
  5368  0139  3000               	movlw	0
  5369  013A  00BC               	movwf	___fldiv@b+3
  5370  013B  3000               	movlw	0
  5371  013C  00BB               	movwf	___fldiv@b+2
  5372  013D  3000               	movlw	0
  5373  013E  00BA               	movwf	___fldiv@b+1
  5374  013F  3000               	movlw	0
  5375  0140  00B9               	movwf	___fldiv@b
  5376  0141                     l1931:
  5377  0141  17BB               	bsf	___fldiv@b+2,7
  5378  0142                     l1933:
  5379  0142  01BC               	clrf	___fldiv@b+3
  5380  0143  294C               	goto	l1937
  5381  0144                     l1935:
  5382  0144  3000               	movlw	0
  5383  0145  00BC               	movwf	___fldiv@b+3
  5384  0146  3000               	movlw	0
  5385  0147  00BB               	movwf	___fldiv@b+2
  5386  0148  3000               	movlw	0
  5387  0149  00BA               	movwf	___fldiv@b+1
  5388  014A  3000               	movlw	0
  5389  014B  00B9               	movwf	___fldiv@b
  5390  014C                     l1937:
  5391  014C  0838               	movf	___fldiv@a+3,w
  5392  014D  3980               	andlw	128
  5393  014E  00BD               	movwf	??___fldiv
  5394  014F  083D               	movf	??___fldiv,w
  5395  0150  06C6               	xorwf	___fldiv@sign,f
  5396  0151                     l1939:
  5397  0151  0838               	movf	___fldiv@a+3,w
  5398  0152  00BD               	movwf	??___fldiv
  5399  0153  073D               	addwf	??___fldiv,w
  5400  0154  00BE               	movwf	??___fldiv+1
  5401  0155  083E               	movf	??___fldiv+1,w
  5402  0156  00CE               	movwf	___fldiv@aexp
  5403  0157                     l1941:
  5404  0157  1FB7               	btfss	___fldiv@a+2,7
  5405  0158  295A               	goto	u1911
  5406  0159  295B               	goto	u1910
  5407  015A                     u1911:
  5408  015A  295C               	goto	l1945
  5409  015B                     u1910:
  5410  015B                     l1943:
  5411  015B  144E               	bsf	___fldiv@aexp,0
  5412  015C                     l1945:
  5413  015C  084E               	movf	___fldiv@aexp,w
  5414  015D  1903               	btfsc	3,2
  5415  015E  2960               	goto	u1921
  5416  015F  2961               	goto	u1920
  5417  0160                     u1921:
  5418  0160  2971               	goto	l1955
  5419  0161                     u1920:
  5420  0161                     l1947:
  5421  0161  0A4E               	incf	___fldiv@aexp,w
  5422  0162  1D03               	btfss	3,2
  5423  0163  2965               	goto	u1931
  5424  0164  2966               	goto	u1930
  5425  0165                     u1931:
  5426  0165  296E               	goto	l1951
  5427  0166                     u1930:
  5428  0166                     l1949:
  5429  0166  3000               	movlw	0
  5430  0167  00B8               	movwf	___fldiv@a+3
  5431  0168  3000               	movlw	0
  5432  0169  00B7               	movwf	___fldiv@a+2
  5433  016A  3000               	movlw	0
  5434  016B  00B6               	movwf	___fldiv@a+1
  5435  016C  3000               	movlw	0
  5436  016D  00B5               	movwf	___fldiv@a
  5437  016E                     l1951:
  5438  016E  17B7               	bsf	___fldiv@a+2,7
  5439  016F                     l1953:
  5440  016F  01B8               	clrf	___fldiv@a+3
  5441  0170  2979               	goto	l612
  5442  0171                     l1955:
  5443  0171  3000               	movlw	0
  5444  0172  00B8               	movwf	___fldiv@a+3
  5445  0173  3000               	movlw	0
  5446  0174  00B7               	movwf	___fldiv@a+2
  5447  0175  3000               	movlw	0
  5448  0176  00B6               	movwf	___fldiv@a+1
  5449  0177  3000               	movlw	0
  5450  0178  00B5               	movwf	___fldiv@a
  5451  0179                     l612:
  5452  0179  0838               	movf	___fldiv@a+3,w
  5453  017A  0437               	iorwf	___fldiv@a+2,w
  5454  017B  0436               	iorwf	___fldiv@a+1,w
  5455  017C  0435               	iorwf	___fldiv@a,w
  5456  017D  1D03               	skipz
  5457  017E  2980               	goto	u1941
  5458  017F  2981               	goto	u1940
  5459  0180                     u1941:
  5460  0180  299A               	goto	l1965
  5461  0181                     u1940:
  5462  0181                     l1957:
  5463  0181  3000               	movlw	0
  5464  0182  00BC               	movwf	___fldiv@b+3
  5465  0183  3000               	movlw	0
  5466  0184  00BB               	movwf	___fldiv@b+2
  5467  0185  3000               	movlw	0
  5468  0186  00BA               	movwf	___fldiv@b+1
  5469  0187  3000               	movlw	0
  5470  0188  00B9               	movwf	___fldiv@b
  5471  0189  3080               	movlw	128
  5472  018A  04BB               	iorwf	___fldiv@b+2,f
  5473  018B  307F               	movlw	127
  5474  018C  04BC               	iorwf	___fldiv@b+3,f
  5475  018D                     l1959:
  5476  018D  0846               	movf	___fldiv@sign,w
  5477  018E  00BD               	movwf	??___fldiv
  5478  018F  083D               	movf	??___fldiv,w
  5479  0190  04BC               	iorwf	___fldiv@b+3,f
  5480  0191                     l1961:
  5481  0191  083C               	movf	___fldiv@b+3,w
  5482  0192  00B8               	movwf	?___fldiv+3
  5483  0193  083B               	movf	___fldiv@b+2,w
  5484  0194  00B7               	movwf	?___fldiv+2
  5485  0195  083A               	movf	___fldiv@b+1,w
  5486  0196  00B6               	movwf	?___fldiv+1
  5487  0197  0839               	movf	___fldiv@b,w
  5488  0198  00B5               	movwf	?___fldiv
  5489  0199  2AF9               	goto	l614
  5490  019A                     l1965:
  5491  019A  084D               	movf	___fldiv@bexp,w
  5492  019B  1D03               	btfss	3,2
  5493  019C  299E               	goto	u1951
  5494  019D  299F               	goto	u1950
  5495  019E                     u1951:
  5496  019E  29A8               	goto	l1971
  5497  019F                     u1950:
  5498  019F                     l1967:
  5499  019F  3000               	movlw	0
  5500  01A0  00B8               	movwf	?___fldiv+3
  5501  01A1  3000               	movlw	0
  5502  01A2  00B7               	movwf	?___fldiv+2
  5503  01A3  3000               	movlw	0
  5504  01A4  00B6               	movwf	?___fldiv+1
  5505  01A5  3000               	movlw	0
  5506  01A6  00B5               	movwf	?___fldiv
  5507  01A7  2AF9               	goto	l614
  5508  01A8                     l1971:
  5509  01A8  084D               	movf	___fldiv@bexp,w
  5510  01A9  00BD               	movwf	??___fldiv
  5511  01AA  01BE               	clrf	??___fldiv+1
  5512  01AB  083E               	movf	??___fldiv+1,w
  5513  01AC  00C0               	movwf	??___fldiv+3
  5514  01AD  084E               	movf	___fldiv@aexp,w
  5515  01AE  023D               	subwf	??___fldiv,w
  5516  01AF  00BF               	movwf	??___fldiv+2
  5517  01B0  1C03               	skipc
  5518  01B1  03C0               	decf	??___fldiv+3,f
  5519  01B2  083F               	movf	??___fldiv+2,w
  5520  01B3  3E7F               	addlw	127
  5521  01B4  00C7               	movwf	___fldiv@new_exp
  5522  01B5  0840               	movf	??___fldiv+3,w
  5523  01B6  1803               	skipnc
  5524  01B7  3E01               	addlw	1
  5525  01B8  3E00               	addlw	0
  5526  01B9  00C8               	movwf	___fldiv@new_exp+1
  5527  01BA                     l1973:
  5528  01BA  083C               	movf	___fldiv@b+3,w
  5529  01BB  00C5               	movwf	___fldiv@rem+3
  5530  01BC  083B               	movf	___fldiv@b+2,w
  5531  01BD  00C4               	movwf	___fldiv@rem+2
  5532  01BE  083A               	movf	___fldiv@b+1,w
  5533  01BF  00C3               	movwf	___fldiv@rem+1
  5534  01C0  0839               	movf	___fldiv@b,w
  5535  01C1  00C2               	movwf	___fldiv@rem
  5536  01C2                     l1975:
  5537  01C2  3000               	movlw	0
  5538  01C3  00BC               	movwf	___fldiv@b+3
  5539  01C4  3000               	movlw	0
  5540  01C5  00BB               	movwf	___fldiv@b+2
  5541  01C6  3000               	movlw	0
  5542  01C7  00BA               	movwf	___fldiv@b+1
  5543  01C8  3000               	movlw	0
  5544  01C9  00B9               	movwf	___fldiv@b
  5545  01CA                     l1977:
  5546  01CA  3000               	movlw	0
  5547  01CB  00CC               	movwf	___fldiv@grs+3
  5548  01CC  3000               	movlw	0
  5549  01CD  00CB               	movwf	___fldiv@grs+2
  5550  01CE  3000               	movlw	0
  5551  01CF  00CA               	movwf	___fldiv@grs+1
  5552  01D0  3000               	movlw	0
  5553  01D1  00C9               	movwf	___fldiv@grs
  5554  01D2                     l1979:
  5555  01D2  01CE               	clrf	___fldiv@aexp
  5556  01D3  2A1E               	goto	l1999
  5557  01D4                     l1981:
  5558  01D4  084E               	movf	___fldiv@aexp,w
  5559  01D5  1903               	btfsc	3,2
  5560  01D6  29D8               	goto	u1961
  5561  01D7  29D9               	goto	u1960
  5562  01D8                     u1961:
  5563  01D8  29F9               	goto	l1991
  5564  01D9                     u1960:
  5565  01D9                     l1983:
  5566  01D9  3001               	movlw	1
  5567  01DA  00BD               	movwf	??___fldiv
  5568  01DB                     u1975:
  5569  01DB  1003               	clrc
  5570  01DC  0DC2               	rlf	___fldiv@rem,f
  5571  01DD  0DC3               	rlf	___fldiv@rem+1,f
  5572  01DE  0DC4               	rlf	___fldiv@rem+2,f
  5573  01DF  0DC5               	rlf	___fldiv@rem+3,f
  5574  01E0  0BBD               	decfsz	??___fldiv,f
  5575  01E1  29DB               	goto	u1975
  5576  01E2  3001               	movlw	1
  5577  01E3  00BD               	movwf	??___fldiv
  5578  01E4                     u1985:
  5579  01E4  1003               	clrc
  5580  01E5  0DB9               	rlf	___fldiv@b,f
  5581  01E6  0DBA               	rlf	___fldiv@b+1,f
  5582  01E7  0DBB               	rlf	___fldiv@b+2,f
  5583  01E8  0DBC               	rlf	___fldiv@b+3,f
  5584  01E9  0BBD               	decfsz	??___fldiv,f
  5585  01EA  29E4               	goto	u1985
  5586  01EB                     l1985:
  5587  01EB  1FCC               	btfss	___fldiv@grs+3,7
  5588  01EC  29EE               	goto	u1991
  5589  01ED  29EF               	goto	u1990
  5590  01EE                     u1991:
  5591  01EE  29F0               	goto	l1989
  5592  01EF                     u1990:
  5593  01EF                     l1987:
  5594  01EF  1439               	bsf	___fldiv@b,0
  5595  01F0                     l1989:
  5596  01F0  3001               	movlw	1
  5597  01F1  00BD               	movwf	??___fldiv
  5598  01F2                     u2005:
  5599  01F2  1003               	clrc
  5600  01F3  0DC9               	rlf	___fldiv@grs,f
  5601  01F4  0DCA               	rlf	___fldiv@grs+1,f
  5602  01F5  0DCB               	rlf	___fldiv@grs+2,f
  5603  01F6  0DCC               	rlf	___fldiv@grs+3,f
  5604  01F7  0BBD               	decfsz	??___fldiv,f
  5605  01F8  29F2               	goto	u2005
  5606  01F9                     l1991:
  5607  01F9  0838               	movf	___fldiv@a+3,w
  5608  01FA  0245               	subwf	___fldiv@rem+3,w
  5609  01FB  1D03               	skipz
  5610  01FC  2A07               	goto	u2015
  5611  01FD  0837               	movf	___fldiv@a+2,w
  5612  01FE  0244               	subwf	___fldiv@rem+2,w
  5613  01FF  1D03               	skipz
  5614  0200  2A07               	goto	u2015
  5615  0201  0836               	movf	___fldiv@a+1,w
  5616  0202  0243               	subwf	___fldiv@rem+1,w
  5617  0203  1D03               	skipz
  5618  0204  2A07               	goto	u2015
  5619  0205  0835               	movf	___fldiv@a,w
  5620  0206  0242               	subwf	___fldiv@rem,w
  5621  0207                     u2015:
  5622  0207  1C03               	skipc
  5623  0208  2A0A               	goto	u2011
  5624  0209  2A0B               	goto	u2010
  5625  020A                     u2011:
  5626  020A  2A1A               	goto	l1997
  5627  020B                     u2010:
  5628  020B                     l1993:
  5629  020B  174C               	bsf	___fldiv@grs+3,6
  5630  020C                     l1995:
  5631  020C  0835               	movf	___fldiv@a,w
  5632  020D  02C2               	subwf	___fldiv@rem,f
  5633  020E  0836               	movf	___fldiv@a+1,w
  5634  020F  1C03               	skipc
  5635  0210  0F36               	incfsz	___fldiv@a+1,w
  5636  0211  02C3               	subwf	___fldiv@rem+1,f
  5637  0212  0837               	movf	___fldiv@a+2,w
  5638  0213  1C03               	skipc
  5639  0214  0F37               	incfsz	___fldiv@a+2,w
  5640  0215  02C4               	subwf	___fldiv@rem+2,f
  5641  0216  0838               	movf	___fldiv@a+3,w
  5642  0217  1C03               	skipc
  5643  0218  0F38               	incfsz	___fldiv@a+3,w
  5644  0219  02C5               	subwf	___fldiv@rem+3,f
  5645  021A                     l1997:
  5646  021A  3001               	movlw	1
  5647  021B  00BD               	movwf	??___fldiv
  5648  021C  083D               	movf	??___fldiv,w
  5649  021D  07CE               	addwf	___fldiv@aexp,f
  5650  021E                     l1999:
  5651  021E  301A               	movlw	26
  5652  021F  024E               	subwf	___fldiv@aexp,w
  5653  0220  1C03               	skipc
  5654  0221  2A23               	goto	u2021
  5655  0222  2A24               	goto	u2020
  5656  0223                     u2021:
  5657  0223  29D4               	goto	l1981
  5658  0224                     u2020:
  5659  0224                     l2001:
  5660  0224  0845               	movf	___fldiv@rem+3,w
  5661  0225  0444               	iorwf	___fldiv@rem+2,w
  5662  0226  0443               	iorwf	___fldiv@rem+1,w
  5663  0227  0442               	iorwf	___fldiv@rem,w
  5664  0228  1903               	skipnz
  5665  0229  2A2B               	goto	u2031
  5666  022A  2A2C               	goto	u2030
  5667  022B                     u2031:
  5668  022B  2A4B               	goto	l2015
  5669  022C                     u2030:
  5670  022C                     l2003:
  5671  022C  1449               	bsf	___fldiv@grs,0
  5672  022D  2A4B               	goto	l2015
  5673  022E                     l2005:
  5674  022E  3001               	movlw	1
  5675  022F  00BD               	movwf	??___fldiv
  5676  0230                     u2045:
  5677  0230  1003               	clrc
  5678  0231  0DB9               	rlf	___fldiv@b,f
  5679  0232  0DBA               	rlf	___fldiv@b+1,f
  5680  0233  0DBB               	rlf	___fldiv@b+2,f
  5681  0234  0DBC               	rlf	___fldiv@b+3,f
  5682  0235  0BBD               	decfsz	??___fldiv,f
  5683  0236  2A30               	goto	u2045
  5684  0237                     l2007:
  5685  0237  1FCC               	btfss	___fldiv@grs+3,7
  5686  0238  2A3A               	goto	u2051
  5687  0239  2A3B               	goto	u2050
  5688  023A                     u2051:
  5689  023A  2A3C               	goto	l2011
  5690  023B                     u2050:
  5691  023B                     l2009:
  5692  023B  1439               	bsf	___fldiv@b,0
  5693  023C                     l2011:
  5694  023C  3001               	movlw	1
  5695  023D  00BD               	movwf	??___fldiv
  5696  023E                     u2065:
  5697  023E  1003               	clrc
  5698  023F  0DC9               	rlf	___fldiv@grs,f
  5699  0240  0DCA               	rlf	___fldiv@grs+1,f
  5700  0241  0DCB               	rlf	___fldiv@grs+2,f
  5701  0242  0DCC               	rlf	___fldiv@grs+3,f
  5702  0243  0BBD               	decfsz	??___fldiv,f
  5703  0244  2A3E               	goto	u2065
  5704  0245                     l2013:
  5705  0245  30FF               	movlw	255
  5706  0246  07C7               	addwf	___fldiv@new_exp,f
  5707  0247  1803               	skipnc
  5708  0248  0AC8               	incf	___fldiv@new_exp+1,f
  5709  0249  30FF               	movlw	255
  5710  024A  07C8               	addwf	___fldiv@new_exp+1,f
  5711  024B                     l2015:
  5712  024B  1FBB               	btfss	___fldiv@b+2,7
  5713  024C  2A4E               	goto	u2071
  5714  024D  2A4F               	goto	u2070
  5715  024E                     u2071:
  5716  024E  2A2E               	goto	l2005
  5717  024F                     u2070:
  5718  024F                     l2017:
  5719  024F  01CE               	clrf	___fldiv@aexp
  5720  0250                     l2019:
  5721  0250  1FCC               	btfss	___fldiv@grs+3,7
  5722  0251  2A53               	goto	u2081
  5723  0252  2A54               	goto	u2080
  5724  0253                     u2081:
  5725  0253  2A70               	goto	l2027
  5726  0254                     u2080:
  5727  0254                     l2021:
  5728  0254  30FF               	movlw	255
  5729  0255  0549               	andwf	___fldiv@grs,w
  5730  0256  00BD               	movwf	??___fldiv
  5731  0257  30FF               	movlw	255
  5732  0258  054A               	andwf	___fldiv@grs+1,w
  5733  0259  00BE               	movwf	??___fldiv+1
  5734  025A  30FF               	movlw	255
  5735  025B  054B               	andwf	___fldiv@grs+2,w
  5736  025C  00BF               	movwf	??___fldiv+2
  5737  025D  307F               	movlw	127
  5738  025E  054C               	andwf	___fldiv@grs+3,w
  5739  025F  00C0               	movwf	??___fldiv+3
  5740  0260  0840               	movf	??___fldiv+3,w
  5741  0261  043F               	iorwf	??___fldiv+2,w
  5742  0262  043E               	iorwf	??___fldiv+1,w
  5743  0263  043D               	iorwf	??___fldiv,w
  5744  0264  1903               	skipnz
  5745  0265  2A67               	goto	u2091
  5746  0266  2A68               	goto	u2090
  5747  0267                     u2091:
  5748  0267  2A6B               	goto	l628
  5749  0268                     u2090:
  5750  0268                     l2023:
  5751  0268  01CE               	clrf	___fldiv@aexp
  5752  0269  0ACE               	incf	___fldiv@aexp,f
  5753  026A  2A70               	goto	l2027
  5754  026B                     l628:
  5755  026B  1C39               	btfss	___fldiv@b,0
  5756  026C  2A6E               	goto	u2101
  5757  026D  2A6F               	goto	u2100
  5758  026E                     u2101:
  5759  026E  2A70               	goto	l2027
  5760  026F                     u2100:
  5761  026F  2A68               	goto	l2023
  5762  0270                     l2027:
  5763  0270  084E               	movf	___fldiv@aexp,w
  5764  0271  1903               	btfsc	3,2
  5765  0272  2A74               	goto	u2111
  5766  0273  2A75               	goto	u2110
  5767  0274                     u2111:
  5768  0274  2AA6               	goto	l2037
  5769  0275                     u2110:
  5770  0275                     l2029:
  5771  0275  3001               	movlw	1
  5772  0276  07B9               	addwf	___fldiv@b,f
  5773  0277  3000               	movlw	0
  5774  0278  1803               	skipnc
  5775  0279  3001               	movlw	1
  5776  027A  07BA               	addwf	___fldiv@b+1,f
  5777  027B  3000               	movlw	0
  5778  027C  1803               	skipnc
  5779  027D  3001               	movlw	1
  5780  027E  07BB               	addwf	___fldiv@b+2,f
  5781  027F  3000               	movlw	0
  5782  0280  1803               	skipnc
  5783  0281  3001               	movlw	1
  5784  0282  07BC               	addwf	___fldiv@b+3,f
  5785  0283                     l2031:
  5786  0283  1C3C               	btfss	___fldiv@b+3,0
  5787  0284  2A86               	goto	u2121
  5788  0285  2A87               	goto	u2120
  5789  0286                     u2121:
  5790  0286  2AA6               	goto	l2037
  5791  0287                     u2120:
  5792  0287                     l2033:
  5793  0287  0839               	movf	___fldiv@b,w
  5794  0288  00BD               	movwf	??___fldiv
  5795  0289  083A               	movf	___fldiv@b+1,w
  5796  028A  00BE               	movwf	??___fldiv+1
  5797  028B  083B               	movf	___fldiv@b+2,w
  5798  028C  00BF               	movwf	??___fldiv+2
  5799  028D  083C               	movf	___fldiv@b+3,w
  5800  028E  00C0               	movwf	??___fldiv+3
  5801  028F  3001               	movlw	1
  5802  0290  00C1               	movwf	??___fldiv+4
  5803  0291                     u2135:
  5804  0291  0D40               	rlf	??___fldiv+3,w
  5805  0292  0CC0               	rrf	??___fldiv+3,f
  5806  0293  0CBF               	rrf	??___fldiv+2,f
  5807  0294  0CBE               	rrf	??___fldiv+1,f
  5808  0295  0CBD               	rrf	??___fldiv,f
  5809  0296                     u2130:
  5810  0296  0BC1               	decfsz	??___fldiv+4,f
  5811  0297  2A91               	goto	u2135
  5812  0298  0840               	movf	??___fldiv+3,w
  5813  0299  00BC               	movwf	___fldiv@b+3
  5814  029A  083F               	movf	??___fldiv+2,w
  5815  029B  00BB               	movwf	___fldiv@b+2
  5816  029C  083E               	movf	??___fldiv+1,w
  5817  029D  00BA               	movwf	___fldiv@b+1
  5818  029E  083D               	movf	??___fldiv,w
  5819  029F  00B9               	movwf	___fldiv@b
  5820  02A0                     l2035:
  5821  02A0  3001               	movlw	1
  5822  02A1  07C7               	addwf	___fldiv@new_exp,f
  5823  02A2  1803               	skipnc
  5824  02A3  0AC8               	incf	___fldiv@new_exp+1,f
  5825  02A4  3000               	movlw	0
  5826  02A5  07C8               	addwf	___fldiv@new_exp+1,f
  5827  02A6                     l2037:
  5828  02A6  0848               	movf	___fldiv@new_exp+1,w
  5829  02A7  3A80               	xorlw	128
  5830  02A8  00FF               	movwf	btemp+1
  5831  02A9  3080               	movlw	128
  5832  02AA  027F               	subwf	btemp+1,w
  5833  02AB  1D03               	skipz
  5834  02AC  2AAF               	goto	u2145
  5835  02AD  30FF               	movlw	255
  5836  02AE  0247               	subwf	___fldiv@new_exp,w
  5837  02AF                     u2145:
  5838  02AF  1C03               	skipc
  5839  02B0  2AB2               	goto	u2141
  5840  02B1  2AB3               	goto	u2140
  5841  02B2                     u2141:
  5842  02B2  2AC1               	goto	l2041
  5843  02B3                     u2140:
  5844  02B3                     l2039:
  5845  02B3  30FF               	movlw	255
  5846  02B4  1283               	bcf	3,5	;RP0=0, select bank0
  5847  02B5  1303               	bcf	3,6	;RP1=0, select bank0
  5848  02B6  00C7               	movwf	___fldiv@new_exp
  5849  02B7  3000               	movlw	0
  5850  02B8  00C8               	movwf	___fldiv@new_exp+1
  5851  02B9  3000               	movlw	0
  5852  02BA  00BC               	movwf	___fldiv@b+3
  5853  02BB  3000               	movlw	0
  5854  02BC  00BB               	movwf	___fldiv@b+2
  5855  02BD  3000               	movlw	0
  5856  02BE  00BA               	movwf	___fldiv@b+1
  5857  02BF  3000               	movlw	0
  5858  02C0  00B9               	movwf	___fldiv@b
  5859  02C1                     l2041:
  5860  02C1  1283               	bcf	3,5	;RP0=0, select bank0
  5861  02C2  1303               	bcf	3,6	;RP1=0, select bank0
  5862  02C3  0848               	movf	___fldiv@new_exp+1,w
  5863  02C4  3A80               	xorlw	128
  5864  02C5  00FF               	movwf	btemp+1
  5865  02C6  3080               	movlw	128
  5866  02C7  027F               	subwf	btemp+1,w
  5867  02C8  1D03               	skipz
  5868  02C9  2ACC               	goto	u2155
  5869  02CA  3001               	movlw	1
  5870  02CB  0247               	subwf	___fldiv@new_exp,w
  5871  02CC                     u2155:
  5872  02CC  1803               	skipnc
  5873  02CD  2ACF               	goto	u2151
  5874  02CE  2AD0               	goto	u2150
  5875  02CF                     u2151:
  5876  02CF  2ADD               	goto	l634
  5877  02D0                     u2150:
  5878  02D0                     l2043:
  5879  02D0  1283               	bcf	3,5	;RP0=0, select bank0
  5880  02D1  1303               	bcf	3,6	;RP1=0, select bank0
  5881  02D2  01C7               	clrf	___fldiv@new_exp
  5882  02D3  01C8               	clrf	___fldiv@new_exp+1
  5883  02D4                     l2045:
  5884  02D4  3000               	movlw	0
  5885  02D5  00BC               	movwf	___fldiv@b+3
  5886  02D6  3000               	movlw	0
  5887  02D7  00BB               	movwf	___fldiv@b+2
  5888  02D8  3000               	movlw	0
  5889  02D9  00BA               	movwf	___fldiv@b+1
  5890  02DA  3000               	movlw	0
  5891  02DB  00B9               	movwf	___fldiv@b
  5892  02DC                     l2047:
  5893  02DC  01C6               	clrf	___fldiv@sign
  5894  02DD                     l634:
  5895  02DD  1283               	bcf	3,5	;RP0=0, select bank0
  5896  02DE  1303               	bcf	3,6	;RP1=0, select bank0
  5897  02DF  0847               	movf	___fldiv@new_exp,w
  5898  02E0  00BD               	movwf	??___fldiv
  5899  02E1  083D               	movf	??___fldiv,w
  5900  02E2  00CD               	movwf	___fldiv@bexp
  5901  02E3                     l2049:
  5902  02E3  1C4D               	btfss	___fldiv@bexp,0
  5903  02E4  2AE6               	goto	u2161
  5904  02E5  2AE7               	goto	u2160
  5905  02E6                     u2161:
  5906  02E6  2AE9               	goto	l2053
  5907  02E7                     u2160:
  5908  02E7                     l2051:
  5909  02E7  17BB               	bsf	___fldiv@b+2,7
  5910  02E8  2AED               	goto	l636
  5911  02E9                     l2053:
  5912  02E9  307F               	movlw	127
  5913  02EA  00BD               	movwf	??___fldiv
  5914  02EB  083D               	movf	??___fldiv,w
  5915  02EC  05BB               	andwf	___fldiv@b+2,f
  5916  02ED                     l636:
  5917  02ED  084D               	movf	___fldiv@bexp,w
  5918  02EE  00BD               	movwf	??___fldiv
  5919  02EF  1003               	clrc
  5920  02F0  0C3D               	rrf	??___fldiv,w
  5921  02F1  00BE               	movwf	??___fldiv+1
  5922  02F2  083E               	movf	??___fldiv+1,w
  5923  02F3  00BC               	movwf	___fldiv@b+3
  5924  02F4  0846               	movf	___fldiv@sign,w
  5925  02F5  00BD               	movwf	??___fldiv
  5926  02F6  083D               	movf	??___fldiv,w
  5927  02F7  04BC               	iorwf	___fldiv@b+3,f
  5928  02F8  2991               	goto	l1961
  5929  02F9                     l614:
  5930  02F9  0008               	return
  5931  02FA                     __end_of___fldiv:
  5932  007E                     btemp	set	126	;btemp
  5933  007E                     wtemp0	set	126
  5934                           
  5935                           	psect	config
  5936                           
  5937                           ;Config register CONFIG1 @ 0x2007
  5938                           ;	Oscillator Selection bits
  5939                           ;	FOSC = INTRC_NOCLKOUT, INTOSCIO oscillator: I/O function on RA6/OSC2/CLKOUT pin, I/O f
      +                          unction on RA7/OSC1/CLKIN
  5940                           ;	Watchdog Timer Enable bit
  5941                           ;	WDTE = OFF, WDT disabled and can be enabled by SWDTEN bit of the WDTCON register
  5942                           ;	Power-up Timer Enable bit
  5943                           ;	PWRTE = OFF, PWRT disabled
  5944                           ;	RE3/MCLR pin function select bit
  5945                           ;	MCLRE = ON, RE3/MCLR pin function is MCLR
  5946                           ;	Code Protection bit
  5947                           ;	CP = OFF, Program memory code protection is disabled
  5948                           ;	Data Code Protection bit
  5949                           ;	CPD = OFF, Data memory code protection is disabled
  5950                           ;	Brown Out Reset Selection bits
  5951                           ;	BOREN = ON, BOR enabled
  5952                           ;	Internal External Switchover bit
  5953                           ;	IESO = ON, Internal/External Switchover mode is enabled
  5954                           ;	Fail-Safe Clock Monitor Enabled bit
  5955                           ;	FCMEN = ON, Fail-Safe Clock Monitor is enabled
  5956                           ;	Low Voltage Programming Enable bit
  5957                           ;	LVP = OFF, RB3 pin has digital I/O, HV on MCLR must be used for programming
  5958                           ;	In-Circuit Debugger Mode bit
  5959                           ;	DEBUG = 0x1, unprogrammed default
  5960  2007                     	org	8199
  5961  2007  2FF4               	dw	12276
  5962                           
  5963                           ;Config register CONFIG2 @ 0x2008
  5964                           ;	Brown-out Reset Selection bit
  5965                           ;	BOR4V = BOR40V, Brown-out Reset set to 4.0V
  5966                           ;	Flash Program Memory Self Write Enable bits
  5967                           ;	WRT = OFF, Write protection off
  5968  2008                     	org	8200
  5969  2008  3FFF               	dw	16383

Data Sizes:
    Strings     62
    Constant    18
    Data        0
    BSS         2
    Persistent  0
    Stack       0

Auto Spaces:
    Space          Size  Autos    Used
    COMMON           14     14      14
    BANK0            80     53      55
    BANK1            80     40      40
    BANK2            80      0       0

Pointer List with Targets:

    printf@f	PTR const unsigned char  size(1) Largest target is 30
		 -> STR_3(CODE[30]), STR_2(CODE[15]), STR_1(CODE[2]), 

    printf@ap	PTR void [1] size(1) Largest target is 2
		 -> ?_printf(BANK0[2]), 


Critical Paths under _main in COMMON

    _main->___flmul
    _main->___xxtofl
    _printf->___lwmod
    ___lwmod->___lwdiv
    ___flmul->__Umul8_16
    ___fldiv->___flmul
    ___fldiv->___xxtofl

Critical Paths under _main in BANK0

    _main->___fldiv
    ___fldiv->___flmul

Critical Paths under _main in BANK1

    None.

Critical Paths under _main in BANK2

    None.

Call Graph Tables:

 ---------------------------------------------------------------------------------
 (Depth) Function   	        Calls       Base Space   Used Autos Params    Refs
 ---------------------------------------------------------------------------------
 (0) _main                                                46    46      0    9526
                                             47 BANK0      6     6      0
                                              0 BANK1     40    40      0
                            ___fldiv
                             ___fleq
                             ___flge
                            ___flmul
                            ___fltol
                           ___xxtofl
                           _initUART
                           _init_pwm
                             _printf
                           _set_port
 ---------------------------------------------------------------------------------
 (1) _set_port                                             0     0      0       0
 ---------------------------------------------------------------------------------
 (1) _printf                                              25    19      6    1533
                                              0 BANK0     17    11      6
                            ___lwdiv
                            ___lwmod
                              _putch
 ---------------------------------------------------------------------------------
 (2) _putch                                                1     1      0      22
                                              0 COMMON     1     1      0
 ---------------------------------------------------------------------------------
 (2) ___lwmod                                              6     2      4     311
                                              8 COMMON     6     2      4
                            ___lwdiv (ARG)
 ---------------------------------------------------------------------------------
 (2) ___lwdiv                                              8     4      4     466
                                              0 COMMON     8     4      4
 ---------------------------------------------------------------------------------
 (1) _init_pwm                                             0     0      0       0
 ---------------------------------------------------------------------------------
 (1) _initUART                                             0     0      0       0
 ---------------------------------------------------------------------------------
 (1) ___xxtofl                                            14    10      4     398
                                              0 COMMON    14    10      4
 ---------------------------------------------------------------------------------
 (1) ___fltol                                             11     7      4     457
                                              0 COMMON    11     7      4
 ---------------------------------------------------------------------------------
 (1) ___flmul                                             26    18      8    3025
                                              9 COMMON     5     5      0
                                              0 BANK0     21    13      8
                          __Umul8_16
 ---------------------------------------------------------------------------------
 (2) __Umul8_16                                            9     7      2     799
                                              0 COMMON     9     7      2
 ---------------------------------------------------------------------------------
 (1) ___flge                                              12     4      8     790
                                              0 COMMON    12     4      8
 ---------------------------------------------------------------------------------
 (1) ___fleq                                              12     4      8     546
                                              0 COMMON    12     4      8
 ---------------------------------------------------------------------------------
 (1) ___fldiv                                             26    18      8    1881
                                             21 BANK0     26    18      8
                            ___flmul (ARG)
                           ___xxtofl (ARG)
 ---------------------------------------------------------------------------------
 Estimated maximum stack depth 2
 ---------------------------------------------------------------------------------

 Call Graph Graphs:

 _main (ROOT)
   ___fldiv
     ___flmul (ARG)
       __Umul8_16
     ___xxtofl (ARG)
   ___fleq
   ___flge
   ___flmul
     __Umul8_16
   ___fltol
   ___xxtofl
   _initUART
   _init_pwm
   _printf
     ___lwdiv
     ___lwmod
       ___lwdiv (ARG)
     _putch
   _set_port

 Address spaces:
Name               Size   Autos  Total    Cost      Usage
BITCOMMON            E      0       0       0        0.0%
EEDATA             100      0       0       0        0.0%
NULL                 0      0       0       0        0.0%
CODE                 0      0       0       0        0.0%
COMMON               E      E       E       1      100.0%
BITSFR0              0      0       0       1        0.0%
SFR0                 0      0       0       1        0.0%
BITSFR1              0      0       0       2        0.0%
SFR1                 0      0       0       2        0.0%
STACK                0      0       0       2        0.0%
BANK0               50     35      37       3       68.8%
BITBANK1            50      0       0       4        0.0%
BITSFR3              0      0       0       4        0.0%
SFR3                 0      0       0       4        0.0%
BANK1               50     28      28       5       50.0%
BITSFR2              0      0       0       5        0.0%
SFR2                 0      0       0       5        0.0%
BITBANK2            50      0       0       6        0.0%
BANK2               50      0       0       7        0.0%
ABS                  0      0      6D       8        0.0%
BITBANK0            50      0       0       9        0.0%
DATA                 0      0      6D      10        0.0%


Microchip Technology PIC Macro Assembler V2.30 build 20200825195618 
Symbol Table                                                                                   Mon Mar 22 18:20:59 2021

           ___fldiv@aexp 004E             ___fldiv@bexp 004D                        pc 0002  
           ___fldiv@sign 0046                       l84 0594                       l76 042F  
                     l96 07F7                       fsr 0004      __Umul8_16@word_mpld 0076  
                    l110 0956                      l104 07EE                      l113 0942  
                    l122 0062                      l116 0931                      l119 005A  
                    l241 0BC6                      l234 0B9B                      l235 0B7B  
                    l246 0BEB                      l432 0A18                      l440 0B4C  
                    l433 0A34                      l441 0B65                      l434 0A49  
                    l259 0CB0                      l612 0179                      l437 0AE0  
                    l614 02F9                      l710 00F2                      l702 00CA  
                    l535 09FB                      l456 0AAE                      l449 0AC3  
                    l545 09B7                      l634 02DD                      l459 0AC3  
                    l636 02ED                      l628 026B                      l652 0FFF  
                    l709 00E6                      l671 096B                      l664 0FF3  
                    l673 097D                      l658 0F6B                      l696 0085  
                    l698 011C                      _BUZ 0056                      _PR2 0092  
                    fsr0 0004                      indf 0000             ___flmul@aexp 002D  
           ___flmul@bexp 002E             ___flmul@sign 0028             ___flmul@temp 0033  
           ___flmul@prod 002F             ___fltol@exp1 007A                     l2001 0224  
                   l2011 023C                     l2003 022C                     l2021 0254  
                   l2013 0245                     l2005 022E                     l2031 0283  
                   l2023 0268                     l2007 0237                     l2015 024B  
                   l2111 0D70                     l2103 0D1E                     l2041 02C1  
                   l2033 0287                     l2017 024F                     l2009 023B  
                   l2121 0DE9                     l2113 0D9A                     l2105 0D2C  
                   l2201 0069                     l2051 02E7                     l2043 02D0  
                   l2035 02A0                     l2027 0270                     l2019 0250  
                   l2131 0E65                     l2123 0E06                     l2115 0DB6  
                   l2107 0D39                     l2211 0096                     l2203 006D  
                   l2053 02E9                     l2045 02D4                     l2029 0275  
                   l2037 02A6                     l2141 0F17                     l2133 0E90  
                   l2125 0E14                     l2117 0DD2                     l2109 0D54  
                   l2061 0CB8                     l2221 00C1                     l2213 009B  
                   l2205 007D                     l2301 03F8                     l2047 02DC  
                   l2039 02B3                     l2151 0F3C                     l2143 0F20  
                   l2135 0E9E                     l2127 0E31                     l2119 0DDB  
                   l2071 0CCD                     l2063 0CBE                     l2231 00F4  
                   l2223 00D1                     l2215 00A8                     l2207 008D  
                   l2311 0424                     l2303 0400                     l2049 02E3  
                   l2161 0F54                     l2153 0F45                     l2145 0F2E  
                   l2137 0EC9                     l2129 0E48                     l2081 0CEA  
                   l2073 0CD5                     l2065 0CC2                     l2233 010A  
                   l2225 00DC                     l2217 00AF                     l2321 0504  
                   l2313 042F                     l2305 040B                     l2171 0F83  
                   l2163 0F68                     l2147 0F37                     l2155 0F4B  
                   l2139 0EEF                     l2091 0D01                     l2083 0CEE  
                   l2075 0CD7                     l2067 0CC3                     l2059 0CB1  
                   l2235 010F                     l2227 00E0                     l2219 00B3  
                   l2331 0548                     l2323 051D                     l2315 04DA  
                   l2307 0412                     l2251 0300                     l2243 02FA  
                   l2181 0FBE                     l2173 0F87                     l2157 0F4F  
                   l2149 0F3B                     l2093 0D03                     l2085 0CEF  
                   l2077 0CDF                     l2069 0CC8                     l2237 0113  
                   l2229 00EA                     l1701 098E                     l2333 0555  
                   l2325 0523                     l2341 0594                     l2317 04F3  
                   l2309 041D                     l2261 0307                     l2253 0300  
                   l2245 0300                     l2191 0FEB                     l2183 0FCD  
                   l2175 0FA0                     l2167 0F70                     l2159 0F50  
                   l2095 0D0B                     l2087 0CF4                     l2079 0CE4  
                   l2239 0114                     l1711 09AD                     l1703 0992  
                   l2351 0686                     l2327 052E                     l2319 04F9  
                   l2343 063F                     l2271 0322                     l2263 0312  
                   l2255 0300                     l2247 0300                     l1721 0961  
                   l2193 0FEC                     l2185 0FD7                     l2169 0F75  
                   l2177 0FA6                     l2097 0D10                     l2089 0CF9  
                   l1705 0996                     l1713 09B3                     l2361 0790  
                   l2353 06C3                     l2345 0656                     l2337 0562  
                   l2281 037C                     l2273 0328                     l2265 0316  
                   l2257 0300                     l2249 0300                     l1723 0965  
                   l2195 0FF7                     l2187 0FD9                     l2179 0FB3  
                   l2099 0D15                     l1707 09A0                     l1811 0C27  
                   l1803 0C05                     l1731 0943                     l2371 07CF  
                   l2363 0794                     l2355 0731                     l2347 066F  
                   l2339 0588                     l2291 03B3                     l2283 0387  
                   l2267 031A                     l2259 0304                     l1725 0974  
                   l1717 0958                     l2189 0FE7                     l1709 09A6  
                   l1813 0C2B                     l1733 0949                     l2373 07DE  
                   l2365 07A1                     l2357 0748                     l2349 0684  
                   l2293 03BE                     l2285 0392                     l2277 0336  
                   l2269 031F                     l1727 0979                     l1719 095A  
                   l1911 0AA3                     l1903 0A8A                     l2199 0064  
                   l1751 093E                     l1743 0932                     l1671 09BA  
                   l1823 0C7E                     l1815 0C32                     l1807 0C10  
                   l2551 0B8D                     l1735 094D                     l2375 07E4  
                   l2367 07A2                     l2359 075D                     l2295 03C9  
                   l2287 039D                     l2279 0372                     l1921 012A  
                   l1913 0AB3                     l1905 0A9C                     l1753 0921  
                   l1745 0936                     l1681 09D2                     l1673 09C0  
                   l1665 005A                     l1817 0C59                     l1825 0C8F  
                   l2553 0C19                     l1809 0C21                     l1761 0B6E  
                   l1737 0950                     l2369 07C7                     l2289 03A8  
                   l1931 0141                     l1923 012E                     l1851 0A10  
                   l1915 0AB8                     l1755 092B                     l1747 093C  
                   l1683 09E3                     l1675 09C3                     l1691 09F7  
                   l1667 0060                     l2555 0C87                     l1819 0C74  
                   l1827 0C93                     l1771 0B9F                     l1763 0B74  
                   l1739 0953                     l2547 03DE                     l2299 03D4  
                   l1941 0157                     l1933 0142                     l1925 012F  
                   l1917 011D                     l1853 0A2C                     l1861 0AC4  
                   l1757 092E                     l1749 093D                     l1685 09E9  
                   l1677 09CA                     l1669 09B8                     l1773 0BA7  
                   l1781 0BB9                     l1765 0B79                     l1829 0C9E  
                   l2549 056E                     l1951 016E                     l1943 015B  
                   l1927 0134                     l1935 0144                     l1919 0124  
                   l1855 0A46                     l1871 0B24                     l1863 0AD8  
                   l1687 09EA                     l1679 09CE                     l1695 097E  
                   l1783 0BC1                     l1775 0BAB                     l1759 0B69  
                   l1961 0191                     l1953 016F                     l1945 015C  
                   l1937 014C                     l1929 0139                     l1857 0A48  
                   l1849 09FC                     l1873 0B28                     l1865 0AF4  
                   l1881 0A4A                     l1689 09F1                     l1697 0984  
                   l1793 0BE0                     l1777 0BAF                     l1769 0B7D  
                   l1971 01A8                     l1947 0161                     l1955 0171  
                   l1939 0151                     l1875 0B62                     l1867 0AFC  
                   l1891 0A74                     l1883 0A55                     l1699 0987  
                   l1779 0BB3                     l1981 01D4                     l1973 01BA  
                   l1957 0181                     l1965 019A                     l1949 0166  
                   l1877 0B64                     l1869 0B00                     l1893 0A7C  
                   l1789 0BC8                     l1983 01D9                     l1991 01F9  
                   l1975 01C2                     l1967 019F                     l1959 018D  
                   l1895 0A7E                     l1887 0A5E                     l1799 0BED  
                   l1993 020B                     l1985 01EB                     l1977 01CA  
                   l1897 0A82                     l1889 0A73                     l1995 020C  
                   l1987 01EF                     l1979 01D2                     l1997 021A  
                   l1989 01F0                     l1999 021E                     STR_1 0056  
                   STR_2 0049                     STR_3 001A                     STR_4 0038  
                   u2010 020B                     u2011 020A                     u2100 026F  
                   u2020 0224                     u2101 026E                     u2021 0223  
                   u2005 01F2                     u2110 0275                     u2030 022C  
                   u2111 0274                     u2031 022B                     u2015 0207  
                   u2120 0287                     u2200 0CEE                     u2121 0286  
                   u2201 0CED                     u2130 0296                     u2050 023B  
                   u2210 0CF4                     u1410 0060                     u2051 023A  
                   u2211 0CF3                     u1411 005F                     u2140 02B3  
                   u2220 0CF9                     u1420 09C0                     u2141 02B2  
                   u2045 0230                     u2301 0DF8                     u2221 0CF8  
                   u1421 09BF                     u2150 02D0                     u2070 024F  
                   u2302 0DFF                     u2230 0D10                     u1510 0996  
                   u2151 02CF                     u2135 0291                     u2071 024E  
                   u2311 0E23                     u2303 0E06                     u2231 0D0F  
                   u1511 0995                     u2160 02E7                     u2080 0254  
                   u2312 0E2A                     u2240 0D15                     u1440 09D2  
                   u1520 09A0                     u1600 0BAF                     u2161 02E6  
                   u2145 02AF                     u2081 0253                     u2065 023E  
                   u2313 0E31                     u2241 0D14                     u1441 09D1  
                   u1521 099F                     u1505 0988                     u1601 0BAE  
                   u2090 0268                     u2170 0CC2                     u1610 0BDF  
                   u2155 02CC                     u2091 0267                     u2331 0E57  
                   u2251 0D62                     u2171 0CC1                     u1435 09C4  
                   u1611 0BDE                     u1700 0A46                     u2500 0F96  
                   u2420 0F3B                     u2332 0E5E                     u2252 0D69  
                   u2180 0CC8                     u1460 09E3                     u1540 09B3  
                   u1620 0BEA                     u1701 0A45                     u2421 0F3A  
                   u2405 0F19                     u2341 0E82                     u2333 0E65  
                   u2325 0E33                     u2261 0D7E                     u2253 0D70  
                   u2181 0CC7                     u1461 09E2                     u1541 09B2  
                   u1525 099C                     u1621 0BE9                     u1710 0AD8  
                   u1550 0965                     u2510 0FB3                     u2342 0E89  
                   u2262 0D85                     u2190 0CCD                     u1630 0C04  
                   u1711 0AD7                     u1551 0964                     u2511 0FB2  
                   u2415 0F30                     u2351 0EAD                     u2343 0E90  
                   u2271 0DA8                     u2263 0D8C                     u2191 0CCC  
                   u1455 09D3                     u1535 09A7                     u1631 0C03  
                   u1615 0BDB                     u1720 0AF4                     u2520 0FCD  
                   u2440 0F4F                     u2360 0ED5                     u2352 0EB4  
                   u2272 0DAF                     u1800 0A82                     u2600 00D0  
                   u1480 09F7                     u1640 0C0F                     u1705 0A42  
                   u1721 0AF3                     u2521 0FCC                     u2505 0F91  
                   u2441 0F4E                     u2353 0EBB                     u2281 0DC4  
                   u2273 0DB6                     u1801 0A81                     u2601 00CF  
                   u1481 09F6                     u1465 09DF                     u1641 0C0E  
                   u1730 0B00                     u1570 0979                     u2530 0FEB  
                   u2450 0F54                     u2282 0DCB                     u1810 0A89  
                   u1490 0984                     u1650 0C27                     u1731 0AFF  
                   u1571 0978                     u2531 0FEA                     u2515 0FAF  
                   u2451 0F53                     u2435 0F3E                     u2371 0EE1  
                   u2283 0DD2                     u1811 0A88                     u1475 09EB  
                   u1491 0983                     u1651 0C26                     u1635 0C00  
                   u1900 0139                     u2460 0F68                     u2380 0EFD  
                   u2372 0EE8                     u2620 00E0                     u2540 0069  
                   u1660 0C9E                     u1580 0B74                     u2700 0412  
                   u1901 0138                     u1741 0B0F                     u1565 096C  
                   u2525 0FC9                     u2461 0F67                     u2373 0EEF  
                   u2365 0ED0                     u2621 00DF                     u2541 0068  
                   u1661 0C9D                     u1581 0B73                     u2701 0411  
                   u1910 015B                     u1750 0B28                     u1742 0B10  
                   u2470 0F6F                     u1830 0A9B                     u2630 00E6  
                   u2550 006D                     u1670 0CB0                     u1590 0B9F  
                   u2710 0424                     u1911 015A                     u1751 0B27  
                   u1743 0B15                     u2471 0F6E                     u2391 0F09  
                   u2295 0DD4                     u1831 0A9A                     u2631 00E5  
                   u2615 00D5                     u2551 006C                     u1671 0CAF  
                   u1591 0B9E                     u2711 0423                     u1920 0161  
                   u1680 0A10                     u1744 0B16                     u2480 0F75  
                   u2392 0F10                     u1840 0AA2                     u2640 00EA  
                   u2560 008D                     u2720 04F3                     u1921 0160  
                   u1681 0A0F                     u1761 0B37                     u1745 0B1B  
                   u2481 0F74                     u2393 0F17                     u2385 0EF8  
                   u1841 0AA1                     u1825 0A8B                     u2641 00E9  
                   u2561 008C                     u2721 04F2                     u1930 0166  
                   u1690 0A2C                     u1770 0B62                     u1762 0B38  
                   u1746 0B1C                     u2490 0F87                     u2650 00FF  
                   u2730 051D                     u1931 0165                     u1691 0A2B  
                   u1771 0B61                     u1763 0B3D                     u2491 0F86  
                   u2731 051C                     u1940 0181                     u1764 0B3E  
                   u1860 0AB3                     u1780 0A55                     u2660 010F  
                   u2580 00AE                     u2740 0547                     u1941 0180  
                   u1765 0B43                     u1861 0AB2                     u1781 0A54  
                   u2661 010E                     u2581 00AD                     u2741 0546  
                   u1950 019F                     u1766 0B44                     u1870 0AB8  
                   u1790 0A6C                     u2670 0113                     u2750 0656  
                   u1951 019E                     u1775 0B5E                     u1871 0AB7  
                   u1855 0AA5                     u2671 0112                     u2655 00FA  
                   u2575 00A0                     u2751 0655                     u2807 030D  
                   u1960 01D9                     u1880 012E                     u2760 066F  
                   u2680 0335                     u1961 01D8                     u1881 012D  
                   u2817 07D7                     u2761 066E                     u2681 0334  
                   u1890 0134                     u2770 0748                     u2690 0400  
                   u1891 0133                     u1795 0A67                     u2595 00C2  
                   u2827 07EA                     u2771 0747                     u2691 03FF  
                   u2780 07CF                     u2781 07CE                     u2685 0331  
                   u1990 01EF                     u2790 07E4                     u1991 01EE  
                   u1975 01DB                     u2791 07E3                     u1985 01E4  
                   _RCIF 0065                     _TXIF 0064                     _main 02FA  
                   btemp 007E                     _work 0055                     start 0000  
        ___fldiv@new_exp 0047            ___fltol@sign1 0079                    ?_main 0070  
        __end_of___fldiv 02FA          __end_of___flmul 1000          __end_of___fltol 0AC4  
                  _ANSEL 0188          __end_of___lwdiv 09FC          __end_of___lwmod 09B8  
                  _RCREG 001A                    _RCSTA 0018                    _SPBRG 0099  
                  _PORTA 0005                    _PORTB 0006                    _TRISA 0085  
                  _TRISB 0086                    _TRISC 0087                    _TXREG 0019  
                  _TXSTA 0098          __end_of_dpowers 0012                    _putch 0059  
                  pclath 000A                    status 0003                    wtemp0 007E  
        __initialization 07F9             __end_of_main 07F9                   ??_main 004F  
                 _CCPR1L 0015                   ?_putch 0070                   _OSCCON 008F  
       __end_of___xxtofl 011D                   ___flge 0AC4                   ___fleq 09FC  
              ??___fldiv 003D                ??___flmul 0079                ??___fltol 0074  
       __end_of_initUART 0932                ??___lwdiv 0074                ??___lwmod 007C  
       __end_of_init_pwm 0943                   _printf 0B66                   main@tp 00B3  
          main@priscaler 00C4       __size_of__Umul8_16 0027         __end_of_set_port 0957  
             ___flge@ff1 0070               ___flge@ff2 0074             ___xxtofl@arg 007A  
           ___xxtofl@exp 0079             ___xxtofl@val 0070               ___fleq@ff1 0070  
             ___fleq@ff2 0074  __end_of__initialization 07FD               ___fltol@f1 0070  
         __pcstackCOMMON 0070            __end_of_putch 0063                  ??_putch 0070  
             __pbssBANK0 0055        __end_of__Umul8_16 097E               __pmaintext 02FA  
                ?___flge 0070                  ?___fleq 0070                  ?_printf 0020  
              ?___xxtofl 0070               __stringtab 0002                ?_initUART 0070  
              ?_init_pwm 0070                ?_set_port 0070          __size_of___flge 00A2  
        __size_of___fleq 004E                  ___fldiv 011D                  ___flmul 0CB1  
                ___fltol 0A4A                  ___lwdiv 09B8                  ___lwmod 097E  
                __ptext1 0943                  __ptext2 0B66                  __ptext3 0059  
                __ptext4 097E                  __ptext5 09B8                  __ptext6 0932  
                __ptext7 0921                  __ptext8 0063                  __ptext9 0A4A  
        __size_of_printf 014B        __end_of_hexpowers 001A                  _dpowers 0008  
              _T2CONbits 0012               ??___xxtofl 0074                  main@tmp 00BB  
   end_of_initialization 07FD               ??_initUART 0070               ??_init_pwm 0070  
             ??_set_port 0070                _RCSTAbits 0018                  printf@c 0030  
                printf@f 002B            ___xxtofl@sign 0078              ___fldiv@grs 0049  
            ___fldiv@rem 0042              ___flmul@grs 0029              _CCP1CONbits 0017  
              _TXSTAbits 0098               main@onTime 00A3           __end_of___flge 0B66  
         __end_of___fleq 0A4A           __end_of_printf 0CB1      start_initialization 07F9  
               ??___flge 0078                 ??___fleq 0078                __Umul8_16 0957  
               ??_printf 0026                ___fldiv@a 0035                ___fldiv@b 0039  
              ___flmul@a 0024                ___flmul@b 0020                ___latbits 0001  
          __pcstackBANK0 0020            __pcstackBANK1 00A0        __size_of___xxtofl 00BA  
      __size_of_initUART 0011        __size_of_init_pwm 0011         ___lwdiv@dividend 0072  
               ?___fldiv 0035                 ?___flmul 0020                 ?___fltol 0070  
             ?__Umul8_16 0070                 ?___lwdiv 0070                 ?___lwmod 0078  
      __size_of_set_port 0014                __pstrings 0002                _hexpowers 0012  
       ___lwdiv@quotient 0075           __size_of_putch 000A              __stringbase 0007  
             printf@flag 002D               printf@prec 002C              ??__Umul8_16 0072  
       __size_of___fldiv 01DD         __size_of___flmul 034F         __size_of___fltol 007A  
       __size_of___lwdiv 0044         __size_of___lwmod 003A       __end_of__stringtab 0008  
               ___xxtofl 0063                 _main$911 00AA          ___lwdiv@divisor 0070  
        ___lwdiv@counter 0077                 __ptext10 0CB1                 __ptext11 0957  
               __ptext12 0AC4                 __ptext13 09FC                 __ptext14 011D  
               _initUART 0921            __size_of_main 04FF                 _init_pwm 0932  
               _set_port 0943                printf@idx 0029                 main@bits 00BF  
              printf@val 002E                 main@freq 00B9                 main@temp 00B5  
               main@uctp 00AE                putch@byte 0070            main@CLKPeriod 00C0  
       ___lwmod@dividend 007A                stringcode 0002                 printf@ap 002A  
 __Umul8_16@multiplicand 0070          ___lwmod@divisor 0078          ___lwmod@counter 007D  
               stringdir 0002                 stringtab 0002     __Umul8_16@multiplier 0078  
          main@PWMPeriod 00AF        __Umul8_16@product 0074  
